


ARM Macro Assembler    Page 1 


    1 00000000         ;/******************************************************
                       ***********************
    2 00000000         ; * @file:    startup_MK64F12.s
    3 00000000         ; * @purpose: CMSIS Cortex-M4 Core Device Startup File f
                       or the
    4 00000000         ; *           MK64F12
    5 00000000         ; * @version: 1.0
    6 00000000         ; * @date:    2013-8-12
    7 00000000         ; *
    8 00000000         ; * Copyright: 1997 - 2013 Freescale Semiconductor, Inc.
                        All Rights Reserved.
    9 00000000         ;*
   10 00000000         ; *------- <<< Use Configuration Wizard in Context Menu 
                       >>> ------------------
   11 00000000         ; *
   12 00000000         ; ******************************************************
                       ***********************/
   13 00000000         
   14 00000000         
   15 00000000         ; <h> Stack Configuration
   16 00000000         ;   <o> Stack Size (in Bytes) <0x0-0xFFFFFFFF:8>
   17 00000000         ; </h>
   18 00000000         
   19 00000000 00000800 
                       Stack_Size
                               EQU              0x00000800
   20 00000000         
   21 00000000                 AREA             STACK, NOINIT, READWRITE, ALIGN
=3
   22 00000000         Stack_Mem
                               SPACE            Stack_Size
   23 00000800         __initial_sp
   24 00000800         
   25 00000800         
   26 00000800         ; <h> Heap Configuration
   27 00000800         ;   <o>  Heap Size (in Bytes) <0x0-0xFFFFFFFF:8>
   28 00000800         ; </h>
   29 00000800         
   30 00000800 0000F200 
                       Heap_Size
                               EQU              0x0000F200
   31 00000800         
   32 00000800                 AREA             HEAP, NOINIT, READWRITE, ALIGN=
3
   33 00000000         __heap_base
   34 00000000         Heap_Mem
                               SPACE            Heap_Size
   35 0000F200         __heap_limit
   36 0000F200         
   37 0000F200         
   38 0000F200                 PRESERVE8
   39 0000F200                 THUMB
   40 0000F200         
   41 0000F200         
   42 0000F200         ; Vector Table Mapped to Address 0 at Reset
   43 0000F200         
   44 0000F200                 AREA             RESET, DATA, READONLY
   45 00000000                 EXPORT           __Vectors
   46 00000000                 EXPORT           __Vectors_End



ARM Macro Assembler    Page 2 


   47 00000000                 EXPORT           __Vectors_Size
   48 00000000         
   49 00000000 00000000 
                       __Vectors
                               DCD              __initial_sp ; Top of Stack
   50 00000004 00000000        DCD              Reset_Handler ; Reset Handler
   51 00000008 00000000        DCD              NMI_Handler ; NMI Handler
   52 0000000C 00000000        DCD              HardFault_Handler ; Hard Fault 
                                                            Handler
   53 00000010 00000000        DCD              MemManage_Handler 
                                                            ; MPU Fault Handler
                                                            
   54 00000014 00000000        DCD              BusFault_Handler 
                                                            ; Bus Fault Handler
                                                            
   55 00000018 00000000        DCD              UsageFault_Handler ; Usage Faul
                                                            t Handler
   56 0000001C 00000000        DCD              0           ; Reserved
   57 00000020 00000000        DCD              0           ; Reserved
   58 00000024 00000000        DCD              0           ; Reserved
   59 00000028 00000000        DCD              0           ; Reserved
   60 0000002C 00000000        DCD              SVC_Handler ; SVCall Handler
   61 00000030 00000000        DCD              DebugMon_Handler ; Debug Monito
                                                            r Handler
   62 00000034 00000000        DCD              0           ; Reserved
   63 00000038 00000000        DCD              PendSV_Handler ; PendSV Handler
                                                            
   64 0000003C 00000000        DCD              SysTick_Handler 
                                                            ; SysTick Handler
   65 00000040         
   66 00000040         ; External Interrupts
   67 00000040 00000000        DCD              DMA0_IRQHandler ; DMA Channel 0
                                                             Transfer Complete
   68 00000044 00000000        DCD              DMA1_IRQHandler ; DMA Channel 1
                                                             Transfer Complete
   69 00000048 00000000        DCD              DMA2_IRQHandler ; DMA Channel 2
                                                             Transfer Complete
   70 0000004C 00000000        DCD              DMA3_IRQHandler ; DMA Channel 3
                                                             Transfer Complete
   71 00000050 00000000        DCD              DMA4_IRQHandler ; DMA Channel 4
                                                             Transfer Complete
   72 00000054 00000000        DCD              DMA5_IRQHandler ; DMA Channel 5
                                                             Transfer Complete
   73 00000058 00000000        DCD              DMA6_IRQHandler ; DMA Channel 6
                                                             Transfer Complete
   74 0000005C 00000000        DCD              DMA7_IRQHandler ; DMA Channel 7
                                                             Transfer Complete
   75 00000060 00000000        DCD              DMA8_IRQHandler ; DMA Channel 8
                                                             Transfer Complete
   76 00000064 00000000        DCD              DMA9_IRQHandler ; DMA Channel 9
                                                             Transfer Complete
   77 00000068 00000000        DCD              DMA10_IRQHandler ; DMA Channel 
                                                            10 Transfer Complet
                                                            e
   78 0000006C 00000000        DCD              DMA11_IRQHandler ; DMA Channel 
                                                            11 Transfer Complet
                                                            e
   79 00000070 00000000        DCD              DMA12_IRQHandler ; DMA Channel 
                                                            12 Transfer Complet



ARM Macro Assembler    Page 3 


                                                            e
   80 00000074 00000000        DCD              DMA13_IRQHandler ; DMA Channel 
                                                            13 Transfer Complet
                                                            e
   81 00000078 00000000        DCD              DMA14_IRQHandler ; DMA Channel 
                                                            14 Transfer Complet
                                                            e
   82 0000007C 00000000        DCD              DMA15_IRQHandler ; DMA Channel 
                                                            15 Transfer Complet
                                                            e
   83 00000080 00000000        DCD              DMA_Error_IRQHandler ; DMA Erro
                                                            r Interrupt
   84 00000084 00000000        DCD              MCM_IRQHandler 
                                                            ; Normal Interrupt
   85 00000088 00000000        DCD              FTFE_IRQHandler ; FTFE Command 
                                                            complete interrupt
   86 0000008C 00000000        DCD              Read_Collision_IRQHandler ; Rea
                                                            d Collision Interru
                                                            pt
   87 00000090 00000000        DCD              LVD_LVW_IRQHandler ; Low Voltag
                                                            e Detect, Low Volta
                                                            ge Warning
   88 00000094 00000000        DCD              LLW_IRQHandler ; Low Leakage Wa
                                                            keup
   89 00000098 00000000        DCD              Watchdog_IRQHandler 
                                                            ; WDOG Interrupt
   90 0000009C 00000000        DCD              RNG_IRQHandler ; RNG Interrupt
   91 000000A0 00000000        DCD              I2C0_IRQHandler 
                                                            ; I2C0 interrupt
   92 000000A4 00000000        DCD              I2C1_IRQHandler 
                                                            ; I2C1 interrupt
   93 000000A8 00000000        DCD              SPI0_IRQHandler 
                                                            ; SPI0 Interrupt
   94 000000AC 00000000        DCD              SPI1_IRQHandler 
                                                            ; SPI1 Interrupt
   95 000000B0 00000000        DCD              I2S0_Tx_IRQHandler ; I2S0 trans
                                                            mit interrupt
   96 000000B4 00000000        DCD              I2S0_Rx_IRQHandler ; I2S0 recei
                                                            ve interrupt
   97 000000B8 00000000        DCD              UART0_LON_IRQHandler ; UART0 LO
                                                            N interrupt
   98 000000BC 00000000        DCD              UART0_RX_TX_IRQHandler ; UART0 
                                                            Receive/Transmit in
                                                            terrupt
   99 000000C0 00000000        DCD              UART0_ERR_IRQHandler ; UART0 Er
                                                            ror interrupt
  100 000000C4 00000000        DCD              UART1_RX_TX_IRQHandler ; UART1 
                                                            Receive/Transmit in
                                                            terrupt
  101 000000C8 00000000        DCD              UART1_ERR_IRQHandler ; UART1 Er
                                                            ror interrupt
  102 000000CC 00000000        DCD              UART2_RX_TX_IRQHandler ; UART2 
                                                            Receive/Transmit in
                                                            terrupt
  103 000000D0 00000000        DCD              UART2_ERR_IRQHandler ; UART2 Er
                                                            ror interrupt
  104 000000D4 00000000        DCD              UART3_RX_TX_IRQHandler ; UART3 
                                                            Receive/Transmit in
                                                            terrupt



ARM Macro Assembler    Page 4 


  105 000000D8 00000000        DCD              UART3_ERR_IRQHandler ; UART3 Er
                                                            ror interrupt
  106 000000DC 00000000        DCD              ADC0_IRQHandler 
                                                            ; ADC0 interrupt
  107 000000E0 00000000        DCD              CMP0_IRQHandler 
                                                            ; CMP0 interrupt
  108 000000E4 00000000        DCD              CMP1_IRQHandler 
                                                            ; CMP1 interrupt
  109 000000E8 00000000        DCD              FTM0_IRQHandler ; FTM0 fault, o
                                                            verflow and chls in
                                                            terrupt
  110 000000EC 00000000        DCD              FTM1_IRQHandler ; FTM1 fault, o
                                                            verflow and chls in
                                                            terrupt
  111 000000F0 00000000        DCD              FTM2_IRQHandler ; FTM2 fault, o
                                                            verflow and chls in
                                                            terrupt
  112 000000F4 00000000        DCD              CMT_IRQHandler ; CMT interrupt
  113 000000F8 00000000        DCD              RTC_IRQHandler ; RTC interrupt
  114 000000FC 00000000        DCD              RTC_Seconds_IRQHandler ; RTC se
                                                            conds interrupt
  115 00000100 00000000        DCD              PIT0_IRQHandler ; PIT timer chl
                                                             0 interrupt
  116 00000104 00000000        DCD              PIT1_IRQHandler ; PIT timer chl
                                                             1 interrupt
  117 00000108 00000000        DCD              PIT2_IRQHandler ; PIT timer chl
                                                             2 interrupt
  118 0000010C 00000000        DCD              PIT3_IRQHandler ; PIT timer chl
                                                             3 interrupt
  119 00000110 00000000        DCD              PDB0_IRQHandler 
                                                            ; PDB0 Interrupt
  120 00000114 00000000        DCD              USB0_IRQHandler 
                                                            ; USB0 interrupt
  121 00000118 00000000        DCD              USBDCD_IRQHandler 
                                                            ; USBDCD Interrupt
  122 0000011C 00000000        DCD              Reserved71_IRQHandler ; Reserve
                                                            d interrupt 71
  123 00000120 00000000        DCD              DAC0_IRQHandler 
                                                            ; DAC0 interrupt
  124 00000124 00000000        DCD              MCG_IRQHandler ; MCG Interrupt
  125 00000128 00000000        DCD              LPTimer_IRQHandler 
                                                            ; LPTimer interrupt
                                                            
  126 0000012C 00000000        DCD              PORTA_IRQHandler 
                                                            ; Port A interrupt
  127 00000130 00000000        DCD              PORTB_IRQHandler 
                                                            ; Port B interrupt
  128 00000134 00000000        DCD              PORTC_IRQHandler 
                                                            ; Port C interrupt
  129 00000138 00000000        DCD              PORTD_IRQHandler 
                                                            ; Port D interrupt
  130 0000013C 00000000        DCD              PORTE_IRQHandler 
                                                            ; Port E interrupt
  131 00000140 00000000        DCD              SWI_IRQHandler ; Software inter
                                                            rupt
  132 00000144 00000000        DCD              SPI2_IRQHandler 
                                                            ; SPI2 Interrupt
  133 00000148 00000000        DCD              UART4_RX_TX_IRQHandler ; UART4 
                                                            Receive/Transmit in



ARM Macro Assembler    Page 5 


                                                            terrupt
  134 0000014C 00000000        DCD              UART4_ERR_IRQHandler ; UART4 Er
                                                            ror interrupt
  135 00000150 00000000        DCD              UART5_RX_TX_IRQHandler ; UART5 
                                                            Receive/Transmit in
                                                            terrupt
  136 00000154 00000000        DCD              UART5_ERR_IRQHandler ; UART5 Er
                                                            ror interrupt
  137 00000158 00000000        DCD              CMP2_IRQHandler 
                                                            ; CMP2 interrupt
  138 0000015C 00000000        DCD              FTM3_IRQHandler ; FTM3 fault, o
                                                            verflow and chls in
                                                            terrupt
  139 00000160 00000000        DCD              DAC1_IRQHandler 
                                                            ; DAC1 interrupt
  140 00000164 00000000        DCD              ADC1_IRQHandler 
                                                            ; ADC1 interrupt
  141 00000168 00000000        DCD              I2C2_IRQHandler 
                                                            ; I2C2 interrupt
  142 0000016C 00000000        DCD              CAN0_ORed_Message_buffer_IRQHan
dler 
                                                            ; CAN0 OR'd message
                                                             buffers interrupt
  143 00000170 00000000        DCD              CAN0_Bus_Off_IRQHandler ; CAN0 
                                                            bus off interrupt
  144 00000174 00000000        DCD              CAN0_Error_IRQHandler ; CAN0 er
                                                            ror interrupt
  145 00000178 00000000        DCD              CAN0_Tx_Warning_IRQHandler ; CA
                                                            N0 Tx warning inter
                                                            rupt
  146 0000017C 00000000        DCD              CAN0_Rx_Warning_IRQHandler ; CA
                                                            N0 Rx warning inter
                                                            rupt
  147 00000180 00000000        DCD              CAN0_Wake_Up_IRQHandler ; CAN0 
                                                            wake up interrupt
  148 00000184 00000000        DCD              SDHC_IRQHandler 
                                                            ; SDHC interrupt
  149 00000188 00000000        DCD              ENET_1588_Timer_IRQHandler ; Et
                                                            hernet MAC IEEE 158
                                                            8 Timer Interrupt
  150 0000018C 00000000        DCD              ENET_Transmit_IRQHandler ; Ethe
                                                            rnet MAC Transmit I
                                                            nterrupt
  151 00000190 00000000        DCD              ENET_Receive_IRQHandler ; Ether
                                                            net MAC Receive Int
                                                            errupt
  152 00000194 00000000        DCD              ENET_Error_IRQHandler ; Etherne
                                                            t MAC Error and mis
                                                            celaneous Interrupt
                                                            
  153 00000198 00000000        DCD              DefaultISR  ; 102
  154 0000019C 00000000        DCD              DefaultISR  ; 103
  155 000001A0 00000000        DCD              DefaultISR  ; 104
  156 000001A4 00000000        DCD              DefaultISR  ; 105
  157 000001A8 00000000        DCD              DefaultISR  ; 106
  158 000001AC 00000000        DCD              DefaultISR  ; 107
  159 000001B0 00000000        DCD              DefaultISR  ; 108
  160 000001B4 00000000        DCD              DefaultISR  ; 109
  161 000001B8 00000000        DCD              DefaultISR  ; 110



ARM Macro Assembler    Page 6 


  162 000001BC 00000000        DCD              DefaultISR  ; 111
  163 000001C0 00000000        DCD              DefaultISR  ; 112
  164 000001C4 00000000        DCD              DefaultISR  ; 113
  165 000001C8 00000000        DCD              DefaultISR  ; 114
  166 000001CC 00000000        DCD              DefaultISR  ; 115
  167 000001D0 00000000        DCD              DefaultISR  ; 116
  168 000001D4 00000000        DCD              DefaultISR  ; 117
  169 000001D8 00000000        DCD              DefaultISR  ; 118
  170 000001DC 00000000        DCD              DefaultISR  ; 119
  171 000001E0 00000000        DCD              DefaultISR  ; 120
  172 000001E4 00000000        DCD              DefaultISR  ; 121
  173 000001E8 00000000        DCD              DefaultISR  ; 122
  174 000001EC 00000000        DCD              DefaultISR  ; 123
  175 000001F0 00000000        DCD              DefaultISR  ; 124
  176 000001F4 00000000        DCD              DefaultISR  ; 125
  177 000001F8 00000000        DCD              DefaultISR  ; 126
  178 000001FC 00000000        DCD              DefaultISR  ; 127
  179 00000200 00000000        DCD              DefaultISR  ; 128
  180 00000204 00000000        DCD              DefaultISR  ; 129
  181 00000208 00000000        DCD              DefaultISR  ; 130
  182 0000020C 00000000        DCD              DefaultISR  ; 131
  183 00000210 00000000        DCD              DefaultISR  ; 132
  184 00000214 00000000        DCD              DefaultISR  ; 133
  185 00000218 00000000        DCD              DefaultISR  ; 134
  186 0000021C 00000000        DCD              DefaultISR  ; 135
  187 00000220 00000000        DCD              DefaultISR  ; 136
  188 00000224 00000000        DCD              DefaultISR  ; 137
  189 00000228 00000000        DCD              DefaultISR  ; 138
  190 0000022C 00000000        DCD              DefaultISR  ; 139
  191 00000230 00000000        DCD              DefaultISR  ; 140
  192 00000234 00000000        DCD              DefaultISR  ; 141
  193 00000238 00000000        DCD              DefaultISR  ; 142
  194 0000023C 00000000        DCD              DefaultISR  ; 143
  195 00000240 00000000        DCD              DefaultISR  ; 144
  196 00000244 00000000        DCD              DefaultISR  ; 145
  197 00000248 00000000        DCD              DefaultISR  ; 146
  198 0000024C 00000000        DCD              DefaultISR  ; 147
  199 00000250 00000000        DCD              DefaultISR  ; 148
  200 00000254 00000000        DCD              DefaultISR  ; 149
  201 00000258 00000000        DCD              DefaultISR  ; 150
  202 0000025C 00000000        DCD              DefaultISR  ; 151
  203 00000260 00000000        DCD              DefaultISR  ; 152
  204 00000264 00000000        DCD              DefaultISR  ; 153
  205 00000268 00000000        DCD              DefaultISR  ; 154
  206 0000026C 00000000        DCD              DefaultISR  ; 155
  207 00000270 00000000        DCD              DefaultISR  ; 156
  208 00000274 00000000        DCD              DefaultISR  ; 157
  209 00000278 00000000        DCD              DefaultISR  ; 158
  210 0000027C 00000000        DCD              DefaultISR  ; 159
  211 00000280 00000000        DCD              DefaultISR  ; 160
  212 00000284 00000000        DCD              DefaultISR  ; 161
  213 00000288 00000000        DCD              DefaultISR  ; 162
  214 0000028C 00000000        DCD              DefaultISR  ; 163
  215 00000290 00000000        DCD              DefaultISR  ; 164
  216 00000294 00000000        DCD              DefaultISR  ; 165
  217 00000298 00000000        DCD              DefaultISR  ; 166
  218 0000029C 00000000        DCD              DefaultISR  ; 167
  219 000002A0 00000000        DCD              DefaultISR  ; 168
  220 000002A4 00000000        DCD              DefaultISR  ; 169



ARM Macro Assembler    Page 7 


  221 000002A8 00000000        DCD              DefaultISR  ; 170
  222 000002AC 00000000        DCD              DefaultISR  ; 171
  223 000002B0 00000000        DCD              DefaultISR  ; 172
  224 000002B4 00000000        DCD              DefaultISR  ; 173
  225 000002B8 00000000        DCD              DefaultISR  ; 174
  226 000002BC 00000000        DCD              DefaultISR  ; 175
  227 000002C0 00000000        DCD              DefaultISR  ; 176
  228 000002C4 00000000        DCD              DefaultISR  ; 177
  229 000002C8 00000000        DCD              DefaultISR  ; 178
  230 000002CC 00000000        DCD              DefaultISR  ; 179
  231 000002D0 00000000        DCD              DefaultISR  ; 180
  232 000002D4 00000000        DCD              DefaultISR  ; 181
  233 000002D8 00000000        DCD              DefaultISR  ; 182
  234 000002DC 00000000        DCD              DefaultISR  ; 183
  235 000002E0 00000000        DCD              DefaultISR  ; 184
  236 000002E4 00000000        DCD              DefaultISR  ; 185
  237 000002E8 00000000        DCD              DefaultISR  ; 186
  238 000002EC 00000000        DCD              DefaultISR  ; 187
  239 000002F0 00000000        DCD              DefaultISR  ; 188
  240 000002F4 00000000        DCD              DefaultISR  ; 189
  241 000002F8 00000000        DCD              DefaultISR  ; 190
  242 000002FC 00000000        DCD              DefaultISR  ; 191
  243 00000300 00000000        DCD              DefaultISR  ; 192
  244 00000304 00000000        DCD              DefaultISR  ; 193
  245 00000308 00000000        DCD              DefaultISR  ; 194
  246 0000030C 00000000        DCD              DefaultISR  ; 195
  247 00000310 00000000        DCD              DefaultISR  ; 196
  248 00000314 00000000        DCD              DefaultISR  ; 197
  249 00000318 00000000        DCD              DefaultISR  ; 198
  250 0000031C 00000000        DCD              DefaultISR  ; 199
  251 00000320 00000000        DCD              DefaultISR  ; 200
  252 00000324 00000000        DCD              DefaultISR  ; 201
  253 00000328 00000000        DCD              DefaultISR  ; 202
  254 0000032C 00000000        DCD              DefaultISR  ; 203
  255 00000330 00000000        DCD              DefaultISR  ; 204
  256 00000334 00000000        DCD              DefaultISR  ; 205
  257 00000338 00000000        DCD              DefaultISR  ; 206
  258 0000033C 00000000        DCD              DefaultISR  ; 207
  259 00000340 00000000        DCD              DefaultISR  ; 208
  260 00000344 00000000        DCD              DefaultISR  ; 209
  261 00000348 00000000        DCD              DefaultISR  ; 210
  262 0000034C 00000000        DCD              DefaultISR  ; 211
  263 00000350 00000000        DCD              DefaultISR  ; 212
  264 00000354 00000000        DCD              DefaultISR  ; 213
  265 00000358 00000000        DCD              DefaultISR  ; 214
  266 0000035C 00000000        DCD              DefaultISR  ; 215
  267 00000360 00000000        DCD              DefaultISR  ; 216
  268 00000364 00000000        DCD              DefaultISR  ; 217
  269 00000368 00000000        DCD              DefaultISR  ; 218
  270 0000036C 00000000        DCD              DefaultISR  ; 219
  271 00000370 00000000        DCD              DefaultISR  ; 220
  272 00000374 00000000        DCD              DefaultISR  ; 221
  273 00000378 00000000        DCD              DefaultISR  ; 222
  274 0000037C 00000000        DCD              DefaultISR  ; 223
  275 00000380 00000000        DCD              DefaultISR  ; 224
  276 00000384 00000000        DCD              DefaultISR  ; 225
  277 00000388 00000000        DCD              DefaultISR  ; 226
  278 0000038C 00000000        DCD              DefaultISR  ; 227
  279 00000390 00000000        DCD              DefaultISR  ; 228



ARM Macro Assembler    Page 8 


  280 00000394 00000000        DCD              DefaultISR  ; 229
  281 00000398 00000000        DCD              DefaultISR  ; 230
  282 0000039C 00000000        DCD              DefaultISR  ; 231
  283 000003A0 00000000        DCD              DefaultISR  ; 232
  284 000003A4 00000000        DCD              DefaultISR  ; 233
  285 000003A8 00000000        DCD              DefaultISR  ; 234
  286 000003AC 00000000        DCD              DefaultISR  ; 235
  287 000003B0 00000000        DCD              DefaultISR  ; 236
  288 000003B4 00000000        DCD              DefaultISR  ; 237
  289 000003B8 00000000        DCD              DefaultISR  ; 238
  290 000003BC 00000000        DCD              DefaultISR  ; 239
  291 000003C0 00000000        DCD              DefaultISR  ; 240
  292 000003C4 00000000        DCD              DefaultISR  ; 241
  293 000003C8 00000000        DCD              DefaultISR  ; 242
  294 000003CC 00000000        DCD              DefaultISR  ; 243
  295 000003D0 00000000        DCD              DefaultISR  ; 244
  296 000003D4 00000000        DCD              DefaultISR  ; 245
  297 000003D8 00000000        DCD              DefaultISR  ; 246
  298 000003DC 00000000        DCD              DefaultISR  ; 247
  299 000003E0 00000000        DCD              DefaultISR  ; 248
  300 000003E4 00000000        DCD              DefaultISR  ; 249
  301 000003E8 00000000        DCD              DefaultISR  ; 250
  302 000003EC 00000000        DCD              DefaultISR  ; 251
  303 000003F0 00000000        DCD              DefaultISR  ; 252
  304 000003F4 00000000        DCD              DefaultISR  ; 253
  305 000003F8 00000000        DCD              DefaultISR  ; 254
  306 000003FC 00000000        DCD              DefaultISR  ; 255
  307 00000400         __Vectors_End
  308 00000400         
  309 00000400 00000400 
                       __Vectors_Size
                               EQU              __Vectors_End - __Vectors
  310 00000400         
  311 00000400         ; <h> Flash Configuration
  312 00000400         ;   <i> 16-byte flash configuration field that stores de
                       fault protection settings (loaded on reset)
  313 00000400         ;   <i> and security information that allows the MCU to 
                       restrict acces to the FTFL module.
  314 00000400         ;   <h> Backdoor Comparison Key
  315 00000400         ;     <o0>  Backdoor Key 0  <0x0-0xFF:2>
  316 00000400         ;     <o1>  Backdoor Key 1  <0x0-0xFF:2>
  317 00000400         ;     <o2>  Backdoor Key 2  <0x0-0xFF:2>
  318 00000400         ;     <o3>  Backdoor Key 3  <0x0-0xFF:2>
  319 00000400         ;     <o4>  Backdoor Key 4  <0x0-0xFF:2>
  320 00000400         ;     <o5>  Backdoor Key 5  <0x0-0xFF:2>
  321 00000400         ;     <o6>  Backdoor Key 6  <0x0-0xFF:2>
  322 00000400         ;     <o7>  Backdoor Key 7  <0x0-0xFF:2>
  323 00000400 000000FF 
                       BackDoorK0
                               EQU              0xFF
  324 00000400 000000FF 
                       BackDoorK1
                               EQU              0xFF
  325 00000400 000000FF 
                       BackDoorK2
                               EQU              0xFF
  326 00000400 000000FF 
                       BackDoorK3
                               EQU              0xFF



ARM Macro Assembler    Page 9 


  327 00000400 000000FF 
                       BackDoorK4
                               EQU              0xFF
  328 00000400 000000FF 
                       BackDoorK5
                               EQU              0xFF
  329 00000400 000000FF 
                       BackDoorK6
                               EQU              0xFF
  330 00000400 000000FF 
                       BackDoorK7
                               EQU              0xFF
  331 00000400         ;   </h>
  332 00000400         ;   <h> Program flash protection bytes (FPROT)
  333 00000400         ;     <i> Each program flash region can be protected fro
                       m program and erase operation by setting the associated 
                       PROT bit.
  334 00000400         ;     <i> Each bit protects a 1/32 region of the program
                        flash memory.
  335 00000400         ;     <h> FPROT0
  336 00000400         ;       <i> Program flash protection bytes
  337 00000400         ;       <i> 1/32 - 8/32 region
  338 00000400         ;       <o.0>   FPROT0.0
  339 00000400         ;       <o.1>   FPROT0.1
  340 00000400         ;       <o.2>   FPROT0.2
  341 00000400         ;       <o.3>   FPROT0.3
  342 00000400         ;       <o.4>   FPROT0.4
  343 00000400         ;       <o.5>   FPROT0.5
  344 00000400         ;       <o.6>   FPROT0.6
  345 00000400         ;       <o.7>   FPROT0.7
  346 00000400 00000000 
                       nFPROT0 EQU              0x00
  347 00000400 000000FF 
                       FPROT0  EQU              nFPROT0:EOR:0xFF
  348 00000400         ;     </h>
  349 00000400         ;     <h> FPROT1
  350 00000400         ;       <i> Program Flash Region Protect Register 1
  351 00000400         ;       <i> 9/32 - 16/32 region
  352 00000400         ;       <o.0>   FPROT1.0
  353 00000400         ;       <o.1>   FPROT1.1
  354 00000400         ;       <o.2>   FPROT1.2
  355 00000400         ;       <o.3>   FPROT1.3
  356 00000400         ;       <o.4>   FPROT1.4
  357 00000400         ;       <o.5>   FPROT1.5
  358 00000400         ;       <o.6>   FPROT1.6
  359 00000400         ;       <o.7>   FPROT1.7
  360 00000400 00000000 
                       nFPROT1 EQU              0x00
  361 00000400 000000FF 
                       FPROT1  EQU              nFPROT1:EOR:0xFF
  362 00000400         ;     </h>
  363 00000400         ;     <h> FPROT2
  364 00000400         ;       <i> Program Flash Region Protect Register 2
  365 00000400         ;       <i> 17/32 - 24/32 region
  366 00000400         ;       <o.0>   FPROT2.0
  367 00000400         ;       <o.1>   FPROT2.1
  368 00000400         ;       <o.2>   FPROT2.2
  369 00000400         ;       <o.3>   FPROT2.3
  370 00000400         ;       <o.4>   FPROT2.4



ARM Macro Assembler    Page 10 


  371 00000400         ;       <o.5>   FPROT2.5
  372 00000400         ;       <o.6>   FPROT2.6
  373 00000400         ;       <o.7>   FPROT2.7
  374 00000400 00000000 
                       nFPROT2 EQU              0x00
  375 00000400 000000FF 
                       FPROT2  EQU              nFPROT2:EOR:0xFF
  376 00000400         ;     </h>
  377 00000400         ;     <h> FPROT3
  378 00000400         ;       <i> Program Flash Region Protect Register 3
  379 00000400         ;       <i> 25/32 - 32/32 region
  380 00000400         ;       <o.0>   FPROT3.0
  381 00000400         ;       <o.1>   FPROT3.1
  382 00000400         ;       <o.2>   FPROT3.2
  383 00000400         ;       <o.3>   FPROT3.3
  384 00000400         ;       <o.4>   FPROT3.4
  385 00000400         ;       <o.5>   FPROT3.5
  386 00000400         ;       <o.6>   FPROT3.6
  387 00000400         ;       <o.7>   FPROT3.7
  388 00000400 00000000 
                       nFPROT3 EQU              0x00
  389 00000400 000000FF 
                       FPROT3  EQU              nFPROT3:EOR:0xFF
  390 00000400         ;     </h>
  391 00000400         ;   </h>
  392 00000400         ;   <h> Data flash protection byte (FDPROT)
  393 00000400         ;     <i> Each bit protects a 1/8 region of the data fla
                       sh memory.
  394 00000400         ;     <i> (Program flash only devices: Reserved)
  395 00000400         ;     <o.0>   FDPROT.0
  396 00000400         ;     <o.1>   FDPROT.1
  397 00000400         ;     <o.2>   FDPROT.2
  398 00000400         ;     <o.3>   FDPROT.3
  399 00000400         ;     <o.4>   FDPROT.4
  400 00000400         ;     <o.5>   FDPROT.5
  401 00000400         ;     <o.6>   FDPROT.6
  402 00000400         ;     <o.7>   FDPROT.7
  403 00000400 00000000 
                       nFDPROT EQU              0x00
  404 00000400 000000FF 
                       FDPROT  EQU              nFDPROT:EOR:0xFF
  405 00000400         ;   </h>
  406 00000400         ;   <h> EEPROM protection byte (FEPROT)
  407 00000400         ;     <i> FlexNVM devices: Each bit protects a 1/8 regio
                       n of the EEPROM.
  408 00000400         ;     <i> (Program flash only devices: Reserved)
  409 00000400         ;     <o.0>   FEPROT.0
  410 00000400         ;     <o.1>   FEPROT.1
  411 00000400         ;     <o.2>   FEPROT.2
  412 00000400         ;     <o.3>   FEPROT.3
  413 00000400         ;     <o.4>   FEPROT.4
  414 00000400         ;     <o.5>   FEPROT.5
  415 00000400         ;     <o.6>   FEPROT.6
  416 00000400         ;     <o.7>   FEPROT.7
  417 00000400 00000000 
                       nFEPROT EQU              0x00
  418 00000400 000000FF 
                       FEPROT  EQU              nFEPROT:EOR:0xFF
  419 00000400         ;   </h>



ARM Macro Assembler    Page 11 


  420 00000400         ;   <h> Flash nonvolatile option byte (FOPT)
  421 00000400         ;     <i> Allows the user to customize the operation of 
                       the MCU at boot time.
  422 00000400         ;     <o.0>  LPBOOT
  423 00000400         ;       <0=> Low-power boot
  424 00000400         ;       <1=> normal boot
  425 00000400         ;     <o.1>  EZPORT_DIS
  426 00000400         ;       <0=> EzPort operation is enabled
  427 00000400         ;       <1=> EzPort operation is disabled
  428 00000400 000000FF 
                       FOPT    EQU              0xFF
  429 00000400         ;   </h>
  430 00000400         ;   <h> Flash security byte (FSEC)
  431 00000400         ;     <i> WARNING: If SEC field is configured as "MCU se
                       curity status is secure" and MEEN field is configured as
                        "Mass erase is disabled",
  432 00000400         ;     <i> MCU's security status cannot be set back to un
                       secure state since Mass erase via the debugger is blocke
                       d !!!
  433 00000400         ;     <o.0..1> SEC
  434 00000400         ;       <2=> MCU security status is unsecure
  435 00000400         ;       <3=> MCU security status is secure
  436 00000400         ;         <i> Flash Security
  437 00000400         ;         <i> This bits define the security state of the
                        MCU.
  438 00000400         ;     <o.2..3> FSLACC
  439 00000400         ;       <2=> Freescale factory access denied
  440 00000400         ;       <3=> Freescale factory access granted
  441 00000400         ;         <i> Freescale Failure Analysis Access Code
  442 00000400         ;         <i> This bits define the security state of the
                        MCU.
  443 00000400         ;     <o.4..5> MEEN
  444 00000400         ;       <2=> Mass erase is disabled
  445 00000400         ;       <3=> Mass erase is enabled
  446 00000400         ;         <i> Mass Erase Enable Bits
  447 00000400         ;         <i> Enables and disables mass erase capability
                        of the FTFL module
  448 00000400         ;     <o.6..7> KEYEN
  449 00000400         ;       <2=> Backdoor key access enabled
  450 00000400         ;       <3=> Backdoor key access disabled
  451 00000400         ;         <i> Backdoor key Security Enable
  452 00000400         ;         <i> These bits enable and disable backdoor key
                        access to the FTFL module.
  453 00000400 000000FE 
                       FSEC    EQU              0xFE
  454 00000400         ;   </h>
  455 00000400         ; </h>
  456 00000400                 IF               :LNOT::DEF:RAM_TARGET
  457 00000400                 IF               :LNOT::DEF:BOOTLOADER
  458 00000400                 AREA             |.ARM.__at_0x400|, CODE, READON
LY
  459 00000000 FF FF FF 
              FF               DCB              BackDoorK0, BackDoorK1, BackDoo
rK2, BackDoorK3
  460 00000004 FF FF FF 
              FF               DCB              BackDoorK4, BackDoorK5, BackDoo
rK6, BackDoorK7
  461 00000008 FF FF FF 
              FF               DCB              FPROT0,     FPROT1,     FPROT2,



ARM Macro Assembler    Page 12 


     FPROT3
  462 0000000C FE FF FF 
              FF               DCB              FSEC,       FOPT,       FEPROT,
     FDPROT
  463 00000010                 ENDIF
  464 00000010                 ENDIF
  465 00000010                 AREA             |.text|, CODE, READONLY
  466 00000000         
  467 00000000         
  468 00000000         ; Reset Handler
  469 00000000         
  470 00000000         Reset_Handler
                               PROC
  471 00000000                 EXPORT           Reset_Handler             [WEAK
]
  472 00000000                 IMPORT           SystemInit
  473 00000000                 IMPORT           __main
  474 00000000 4809            LDR              R0, =SystemInit
  475 00000002 4780            BLX              R0
  476 00000004 4809            LDR              R0, =__main
  477 00000006 4700            BX               R0
  478 00000008                 ENDP
  479 00000008         
  480 00000008         
  481 00000008         ; Dummy Exception Handlers (infinite loops which can be 
                       modified)
  482 00000008         
  483 00000008         NMI_Handler
                               PROC
  484 00000008                 EXPORT           NMI_Handler               [WEAK
]
  485 00000008 E7FE            B                .
  486 0000000A                 ENDP
  488 0000000A         HardFault_Handler
                               PROC
  489 0000000A                 EXPORT           HardFault_Handler         [WEAK
]
  490 0000000A E7FE            B                .
  491 0000000C                 ENDP
  493 0000000C         MemManage_Handler
                               PROC
  494 0000000C                 EXPORT           MemManage_Handler         [WEAK
]
  495 0000000C E7FE            B                .
  496 0000000E                 ENDP
  498 0000000E         BusFault_Handler
                               PROC
  499 0000000E                 EXPORT           BusFault_Handler          [WEAK
]
  500 0000000E E7FE            B                .
  501 00000010                 ENDP
  503 00000010         UsageFault_Handler
                               PROC
  504 00000010                 EXPORT           UsageFault_Handler        [WEAK
]
  505 00000010 E7FE            B                .
  506 00000012                 ENDP
  507 00000012         SVC_Handler
                               PROC



ARM Macro Assembler    Page 13 


  508 00000012                 EXPORT           SVC_Handler               [WEAK
]
  509 00000012 E7FE            B                .
  510 00000014                 ENDP
  512 00000014         DebugMon_Handler
                               PROC
  513 00000014                 EXPORT           DebugMon_Handler          [WEAK
]
  514 00000014 E7FE            B                .
  515 00000016                 ENDP
  516 00000016         PendSV_Handler
                               PROC
  517 00000016                 EXPORT           PendSV_Handler            [WEAK
]
  518 00000016 E7FE            B                .
  519 00000018                 ENDP
  520 00000018         SysTick_Handler
                               PROC
  521 00000018                 EXPORT           SysTick_Handler           [WEAK
]
  522 00000018 E7FE            B                .
  523 0000001A                 ENDP
  524 0000001A         
  525 0000001A         Default_Handler
                               PROC
  526 0000001A                 EXPORT           DMA0_IRQHandler     [WEAK]
  527 0000001A                 EXPORT           DMA1_IRQHandler     [WEAK]
  528 0000001A                 EXPORT           DMA2_IRQHandler     [WEAK]
  529 0000001A                 EXPORT           DMA3_IRQHandler     [WEAK]
  530 0000001A                 EXPORT           DMA4_IRQHandler     [WEAK]
  531 0000001A                 EXPORT           DMA5_IRQHandler     [WEAK]
  532 0000001A                 EXPORT           DMA6_IRQHandler     [WEAK]
  533 0000001A                 EXPORT           DMA7_IRQHandler     [WEAK]
  534 0000001A                 EXPORT           DMA8_IRQHandler     [WEAK]
  535 0000001A                 EXPORT           DMA9_IRQHandler     [WEAK]
  536 0000001A                 EXPORT           DMA10_IRQHandler     [WEAK]
  537 0000001A                 EXPORT           DMA11_IRQHandler     [WEAK]
  538 0000001A                 EXPORT           DMA12_IRQHandler     [WEAK]
  539 0000001A                 EXPORT           DMA13_IRQHandler     [WEAK]
  540 0000001A                 EXPORT           DMA14_IRQHandler     [WEAK]
  541 0000001A                 EXPORT           DMA15_IRQHandler     [WEAK]
  542 0000001A                 EXPORT           DMA_Error_IRQHandler     [WEAK]
  543 0000001A                 EXPORT           MCM_IRQHandler     [WEAK]
  544 0000001A                 EXPORT           FTFE_IRQHandler     [WEAK]
  545 0000001A                 EXPORT           Read_Collision_IRQHandler     [
WEAK]
  546 0000001A                 EXPORT           LVD_LVW_IRQHandler     [WEAK]
  547 0000001A                 EXPORT           LLW_IRQHandler     [WEAK]
  548 0000001A                 EXPORT           Watchdog_IRQHandler     [WEAK]
  549 0000001A                 EXPORT           RNG_IRQHandler     [WEAK]
  550 0000001A                 EXPORT           I2C0_IRQHandler     [WEAK]
  551 0000001A                 EXPORT           I2C1_IRQHandler     [WEAK]
  552 0000001A                 EXPORT           SPI0_IRQHandler     [WEAK]
  553 0000001A                 EXPORT           SPI1_IRQHandler     [WEAK]
  554 0000001A                 EXPORT           I2S0_Tx_IRQHandler     [WEAK]
  555 0000001A                 EXPORT           I2S0_Rx_IRQHandler     [WEAK]
  556 0000001A                 EXPORT           UART0_LON_IRQHandler     [WEAK]
  557 0000001A                 EXPORT           UART0_RX_TX_IRQHandler     [WEA
K]



ARM Macro Assembler    Page 14 


  558 0000001A                 EXPORT           UART0_ERR_IRQHandler     [WEAK]
  559 0000001A                 EXPORT           UART1_RX_TX_IRQHandler     [WEA
K]
  560 0000001A                 EXPORT           UART1_ERR_IRQHandler     [WEAK]
  561 0000001A                 EXPORT           UART2_RX_TX_IRQHandler     [WEA
K]
  562 0000001A                 EXPORT           UART2_ERR_IRQHandler     [WEAK]
  563 0000001A                 EXPORT           UART3_RX_TX_IRQHandler     [WEA
K]
  564 0000001A                 EXPORT           UART3_ERR_IRQHandler     [WEAK]
  565 0000001A                 EXPORT           ADC0_IRQHandler     [WEAK]
  566 0000001A                 EXPORT           CMP0_IRQHandler     [WEAK]
  567 0000001A                 EXPORT           CMP1_IRQHandler     [WEAK]
  568 0000001A                 EXPORT           FTM0_IRQHandler     [WEAK]
  569 0000001A                 EXPORT           FTM1_IRQHandler     [WEAK]
  570 0000001A                 EXPORT           FTM2_IRQHandler     [WEAK]
  571 0000001A                 EXPORT           CMT_IRQHandler     [WEAK]
  572 0000001A                 EXPORT           RTC_IRQHandler     [WEAK]
  573 0000001A                 EXPORT           RTC_Seconds_IRQHandler     [WEA
K]
  574 0000001A                 EXPORT           PIT0_IRQHandler     [WEAK]
  575 0000001A                 EXPORT           PIT1_IRQHandler     [WEAK]
  576 0000001A                 EXPORT           PIT2_IRQHandler     [WEAK]
  577 0000001A                 EXPORT           PIT3_IRQHandler     [WEAK]
  578 0000001A                 EXPORT           PDB0_IRQHandler     [WEAK]
  579 0000001A                 EXPORT           USB0_IRQHandler     [WEAK]
  580 0000001A                 EXPORT           USBDCD_IRQHandler     [WEAK]
  581 0000001A                 EXPORT           Reserved71_IRQHandler     [WEAK
]
  582 0000001A                 EXPORT           DAC0_IRQHandler     [WEAK]
  583 0000001A                 EXPORT           MCG_IRQHandler     [WEAK]
  584 0000001A                 EXPORT           LPTimer_IRQHandler     [WEAK]
  585 0000001A                 EXPORT           PORTA_IRQHandler     [WEAK]
  586 0000001A                 EXPORT           PORTB_IRQHandler     [WEAK]
  587 0000001A                 EXPORT           PORTC_IRQHandler     [WEAK]
  588 0000001A                 EXPORT           PORTD_IRQHandler     [WEAK]
  589 0000001A                 EXPORT           PORTE_IRQHandler     [WEAK]
  590 0000001A                 EXPORT           SWI_IRQHandler     [WEAK]
  591 0000001A                 EXPORT           SPI2_IRQHandler     [WEAK]
  592 0000001A                 EXPORT           UART4_RX_TX_IRQHandler     [WEA
K]
  593 0000001A                 EXPORT           UART4_ERR_IRQHandler     [WEAK]
  594 0000001A                 EXPORT           UART5_RX_TX_IRQHandler     [WEA
K]
  595 0000001A                 EXPORT           UART5_ERR_IRQHandler     [WEAK]
  596 0000001A                 EXPORT           CMP2_IRQHandler     [WEAK]
  597 0000001A                 EXPORT           FTM3_IRQHandler     [WEAK]
  598 0000001A                 EXPORT           DAC1_IRQHandler     [WEAK]
  599 0000001A                 EXPORT           ADC1_IRQHandler     [WEAK]
  600 0000001A                 EXPORT           I2C2_IRQHandler     [WEAK]
  601 0000001A                 EXPORT           CAN0_ORed_Message_buffer_IRQHan
dler     [WEAK]
  602 0000001A                 EXPORT           CAN0_Bus_Off_IRQHandler     [WE
AK]
  603 0000001A                 EXPORT           CAN0_Error_IRQHandler     [WEAK
]
  604 0000001A                 EXPORT           CAN0_Tx_Warning_IRQHandler     
[WEAK]
  605 0000001A                 EXPORT           CAN0_Rx_Warning_IRQHandler     



ARM Macro Assembler    Page 15 


[WEAK]
  606 0000001A                 EXPORT           CAN0_Wake_Up_IRQHandler     [WE
AK]
  607 0000001A                 EXPORT           SDHC_IRQHandler     [WEAK]
  608 0000001A                 EXPORT           ENET_1588_Timer_IRQHandler     
[WEAK]
  609 0000001A                 EXPORT           ENET_Transmit_IRQHandler     [W
EAK]
  610 0000001A                 EXPORT           ENET_Receive_IRQHandler     [WE
AK]
  611 0000001A                 EXPORT           ENET_Error_IRQHandler     [WEAK
]
  612 0000001A                 EXPORT           DefaultISR                     
 [WEAK]
  613 0000001A         
  614 0000001A         DMA0_IRQHandler
  615 0000001A         DMA1_IRQHandler
  616 0000001A         DMA2_IRQHandler
  617 0000001A         DMA3_IRQHandler
  618 0000001A         DMA4_IRQHandler
  619 0000001A         DMA5_IRQHandler
  620 0000001A         DMA6_IRQHandler
  621 0000001A         DMA7_IRQHandler
  622 0000001A         DMA8_IRQHandler
  623 0000001A         DMA9_IRQHandler
  624 0000001A         DMA10_IRQHandler
  625 0000001A         DMA11_IRQHandler
  626 0000001A         DMA12_IRQHandler
  627 0000001A         DMA13_IRQHandler
  628 0000001A         DMA14_IRQHandler
  629 0000001A         DMA15_IRQHandler
  630 0000001A         DMA_Error_IRQHandler
  631 0000001A         MCM_IRQHandler
  632 0000001A         FTFE_IRQHandler
  633 0000001A         Read_Collision_IRQHandler
  634 0000001A         LVD_LVW_IRQHandler
  635 0000001A         LLW_IRQHandler
  636 0000001A         Watchdog_IRQHandler
  637 0000001A         RNG_IRQHandler
  638 0000001A         I2C0_IRQHandler
  639 0000001A         I2C1_IRQHandler
  640 0000001A         SPI0_IRQHandler
  641 0000001A         SPI1_IRQHandler
  642 0000001A         I2S0_Tx_IRQHandler
  643 0000001A         I2S0_Rx_IRQHandler
  644 0000001A         UART0_LON_IRQHandler
  645 0000001A         UART0_RX_TX_IRQHandler
  646 0000001A         UART0_ERR_IRQHandler
  647 0000001A         UART1_RX_TX_IRQHandler
  648 0000001A         UART1_ERR_IRQHandler
  649 0000001A         UART2_RX_TX_IRQHandler
  650 0000001A         UART2_ERR_IRQHandler
  651 0000001A         UART3_RX_TX_IRQHandler
  652 0000001A         UART3_ERR_IRQHandler
  653 0000001A         ADC0_IRQHandler
  654 0000001A         CMP0_IRQHandler
  655 0000001A         CMP1_IRQHandler
  656 0000001A         FTM0_IRQHandler
  657 0000001A         FTM1_IRQHandler



ARM Macro Assembler    Page 16 


  658 0000001A         FTM2_IRQHandler
  659 0000001A         CMT_IRQHandler
  660 0000001A         RTC_IRQHandler
  661 0000001A         RTC_Seconds_IRQHandler
  662 0000001A         PIT0_IRQHandler
  663 0000001A         PIT1_IRQHandler
  664 0000001A         PIT2_IRQHandler
  665 0000001A         PIT3_IRQHandler
  666 0000001A         PDB0_IRQHandler
  667 0000001A         USB0_IRQHandler
  668 0000001A         USBDCD_IRQHandler
  669 0000001A         Reserved71_IRQHandler
  670 0000001A         DAC0_IRQHandler
  671 0000001A         MCG_IRQHandler
  672 0000001A         LPTimer_IRQHandler
  673 0000001A         PORTA_IRQHandler
  674 0000001A         PORTB_IRQHandler
  675 0000001A         PORTC_IRQHandler
  676 0000001A         PORTD_IRQHandler
  677 0000001A         PORTE_IRQHandler
  678 0000001A         SWI_IRQHandler
  679 0000001A         SPI2_IRQHandler
  680 0000001A         UART4_RX_TX_IRQHandler
  681 0000001A         UART4_ERR_IRQHandler
  682 0000001A         UART5_RX_TX_IRQHandler
  683 0000001A         UART5_ERR_IRQHandler
  684 0000001A         CMP2_IRQHandler
  685 0000001A         FTM3_IRQHandler
  686 0000001A         DAC1_IRQHandler
  687 0000001A         ADC1_IRQHandler
  688 0000001A         I2C2_IRQHandler
  689 0000001A         CAN0_ORed_Message_buffer_IRQHandler
  690 0000001A         CAN0_Bus_Off_IRQHandler
  691 0000001A         CAN0_Error_IRQHandler
  692 0000001A         CAN0_Tx_Warning_IRQHandler
  693 0000001A         CAN0_Rx_Warning_IRQHandler
  694 0000001A         CAN0_Wake_Up_IRQHandler
  695 0000001A         SDHC_IRQHandler
  696 0000001A         ENET_1588_Timer_IRQHandler
  697 0000001A         ENET_Transmit_IRQHandler
  698 0000001A         ENET_Receive_IRQHandler
  699 0000001A         ENET_Error_IRQHandler
  700 0000001A         DefaultISR
  701 0000001A         
  702 0000001A E7FE            B                .
  703 0000001C         
  704 0000001C                 ENDP
  705 0000001C         
  706 0000001C         
  707 0000001C                 ALIGN
  708 0000001C         
  709 0000001C         
  710 0000001C         ; User Initial Stack & Heap
  711 0000001C         
  712 0000001C                 IF               :DEF:__MICROLIB
  719 0000001C         
  720 0000001C                 IMPORT           __use_two_region_memory
  721 0000001C                 EXPORT           __user_initial_stackheap
  722 0000001C         __user_initial_stackheap



ARM Macro Assembler    Page 17 


  723 0000001C         
  724 0000001C 4804            LDR              R0, =  Heap_Mem
  725 0000001E 4905            LDR              R1, =(Stack_Mem + Stack_Size)
  726 00000020 4A05            LDR              R2, = (Heap_Mem +  Heap_Size)
  727 00000022 4B06            LDR              R3, = Stack_Mem
  728 00000024 4770            BX               LR
  729 00000026         
  730 00000026 00 00           ALIGN
  731 00000028         
  732 00000028                 ENDIF
  733 00000028         
  734 00000028         
  735 00000028                 END
              00000000 
              00000000 
              00000000 
              00000800 
              0000F200 
              00000000 
Command Line: --debug --xref --diag_suppress=9931 --cpu=Cortex-M4.fp --apcs=int
erwork --depend=.\frdm_k64_bl\startup_mk64f12.d -o.\frdm_k64_bl\startup_mk64f12
.o -I.\RTE\_mk64f12 -IC:\Keil_v5\ARM\PACK\Keil\Kinetis_K60_DFP\1.5.0\Device\Inc
lude -IC:\Keil_v5\ARM\CMSIS\Include --predefine="__UVISION_VERSION SETA 525" --
predefine="MK64FN1M0xxx12 SETA 1" --list=.\startup_mk64f12.lst ..\..\..\..\Libr
aries\startup\src\mdk\startup_MK64F12.s



ARM Macro Assembler    Page 1 Alphabetic symbol ordering
Relocatable symbols

STACK 00000000

Symbol: STACK
   Definitions
      At line 21 in file ..\..\..\..\Libraries\startup\src\mdk\startup_MK64F12.
s
   Uses
      None
Comment: STACK unused
Stack_Mem 00000000

Symbol: Stack_Mem
   Definitions
      At line 22 in file ..\..\..\..\Libraries\startup\src\mdk\startup_MK64F12.
s
   Uses
      At line 725 in file ..\..\..\..\Libraries\startup\src\mdk\startup_MK64F12
.s
      At line 727 in file ..\..\..\..\Libraries\startup\src\mdk\startup_MK64F12
.s

__initial_sp 00000800

Symbol: __initial_sp
   Definitions
      At line 23 in file ..\..\..\..\Libraries\startup\src\mdk\startup_MK64F12.
s
   Uses
      At line 49 in file ..\..\..\..\Libraries\startup\src\mdk\startup_MK64F12.
s
Comment: __initial_sp used once
3 symbols



ARM Macro Assembler    Page 1 Alphabetic symbol ordering
Relocatable symbols

HEAP 00000000

Symbol: HEAP
   Definitions
      At line 32 in file ..\..\..\..\Libraries\startup\src\mdk\startup_MK64F12.
s
   Uses
      None
Comment: HEAP unused
Heap_Mem 00000000

Symbol: Heap_Mem
   Definitions
      At line 34 in file ..\..\..\..\Libraries\startup\src\mdk\startup_MK64F12.
s
   Uses
      At line 724 in file ..\..\..\..\Libraries\startup\src\mdk\startup_MK64F12
.s
      At line 726 in file ..\..\..\..\Libraries\startup\src\mdk\startup_MK64F12
.s

__heap_base 00000000

Symbol: __heap_base
   Definitions
      At line 33 in file ..\..\..\..\Libraries\startup\src\mdk\startup_MK64F12.
s
   Uses
      None
Comment: __heap_base unused
__heap_limit 0000F200

Symbol: __heap_limit
   Definitions
      At line 35 in file ..\..\..\..\Libraries\startup\src\mdk\startup_MK64F12.
s
   Uses
      None
Comment: __heap_limit unused
4 symbols



ARM Macro Assembler    Page 1 Alphabetic symbol ordering
Relocatable symbols

RESET 00000000

Symbol: RESET
   Definitions
      At line 44 in file ..\..\..\..\Libraries\startup\src\mdk\startup_MK64F12.
s
   Uses
      None
Comment: RESET unused
__Vectors 00000000

Symbol: __Vectors
   Definitions
      At line 49 in file ..\..\..\..\Libraries\startup\src\mdk\startup_MK64F12.
s
   Uses
      At line 45 in file ..\..\..\..\Libraries\startup\src\mdk\startup_MK64F12.
s
      At line 309 in file ..\..\..\..\Libraries\startup\src\mdk\startup_MK64F12
.s

__Vectors_End 00000400

Symbol: __Vectors_End
   Definitions
      At line 307 in file ..\..\..\..\Libraries\startup\src\mdk\startup_MK64F12
.s
   Uses
      At line 46 in file ..\..\..\..\Libraries\startup\src\mdk\startup_MK64F12.
s
      At line 309 in file ..\..\..\..\Libraries\startup\src\mdk\startup_MK64F12
.s

3 symbols



ARM Macro Assembler    Page 1 Alphabetic symbol ordering
Relocatable symbols

.ARM.__at_0x400 00000000

Symbol: .ARM.__at_0x400
   Definitions
      At line 458 in file ..\..\..\..\Libraries\startup\src\mdk\startup_MK64F12
.s
   Uses
      None
Comment: .ARM.__at_0x400 unused
1 symbol



ARM Macro Assembler    Page 1 Alphabetic symbol ordering
Relocatable symbols

.text 00000000

Symbol: .text
   Definitions
      At line 465 in file ..\..\..\..\Libraries\startup\src\mdk\startup_MK64F12
.s
   Uses
      None
Comment: .text unused
ADC0_IRQHandler 0000001A

Symbol: ADC0_IRQHandler
   Definitions
      At line 653 in file ..\..\..\..\Libraries\startup\src\mdk\startup_MK64F12
.s
   Uses
      At line 106 in file ..\..\..\..\Libraries\startup\src\mdk\startup_MK64F12
.s
      At line 565 in file ..\..\..\..\Libraries\startup\src\mdk\startup_MK64F12
.s

ADC1_IRQHandler 0000001A

Symbol: ADC1_IRQHandler
   Definitions
      At line 687 in file ..\..\..\..\Libraries\startup\src\mdk\startup_MK64F12
.s
   Uses
      At line 140 in file ..\..\..\..\Libraries\startup\src\mdk\startup_MK64F12
.s
      At line 599 in file ..\..\..\..\Libraries\startup\src\mdk\startup_MK64F12
.s

BusFault_Handler 0000000E

Symbol: BusFault_Handler
   Definitions
      At line 498 in file ..\..\..\..\Libraries\startup\src\mdk\startup_MK64F12
.s
   Uses
      At line 54 in file ..\..\..\..\Libraries\startup\src\mdk\startup_MK64F12.
s
      At line 499 in file ..\..\..\..\Libraries\startup\src\mdk\startup_MK64F12
.s

CAN0_Bus_Off_IRQHandler 0000001A

Symbol: CAN0_Bus_Off_IRQHandler
   Definitions
      At line 690 in file ..\..\..\..\Libraries\startup\src\mdk\startup_MK64F12
.s
   Uses
      At line 143 in file ..\..\..\..\Libraries\startup\src\mdk\startup_MK64F12
.s
      At line 602 in file ..\..\..\..\Libraries\startup\src\mdk\startup_MK64F12
.s

CAN0_Error_IRQHandler 0000001A




ARM Macro Assembler    Page 2 Alphabetic symbol ordering
Relocatable symbols

Symbol: CAN0_Error_IRQHandler
   Definitions
      At line 691 in file ..\..\..\..\Libraries\startup\src\mdk\startup_MK64F12
.s
   Uses
      At line 144 in file ..\..\..\..\Libraries\startup\src\mdk\startup_MK64F12
.s
      At line 603 in file ..\..\..\..\Libraries\startup\src\mdk\startup_MK64F12
.s

CAN0_ORed_Message_buffer_IRQHandler 0000001A

Symbol: CAN0_ORed_Message_buffer_IRQHandler
   Definitions
      At line 689 in file ..\..\..\..\Libraries\startup\src\mdk\startup_MK64F12
.s
   Uses
      At line 142 in file ..\..\..\..\Libraries\startup\src\mdk\startup_MK64F12
.s
      At line 601 in file ..\..\..\..\Libraries\startup\src\mdk\startup_MK64F12
.s

CAN0_Rx_Warning_IRQHandler 0000001A

Symbol: CAN0_Rx_Warning_IRQHandler
   Definitions
      At line 693 in file ..\..\..\..\Libraries\startup\src\mdk\startup_MK64F12
.s
   Uses
      At line 146 in file ..\..\..\..\Libraries\startup\src\mdk\startup_MK64F12
.s
      At line 605 in file ..\..\..\..\Libraries\startup\src\mdk\startup_MK64F12
.s

CAN0_Tx_Warning_IRQHandler 0000001A

Symbol: CAN0_Tx_Warning_IRQHandler
   Definitions
      At line 692 in file ..\..\..\..\Libraries\startup\src\mdk\startup_MK64F12
.s
   Uses
      At line 145 in file ..\..\..\..\Libraries\startup\src\mdk\startup_MK64F12
.s
      At line 604 in file ..\..\..\..\Libraries\startup\src\mdk\startup_MK64F12
.s

CAN0_Wake_Up_IRQHandler 0000001A

Symbol: CAN0_Wake_Up_IRQHandler
   Definitions
      At line 694 in file ..\..\..\..\Libraries\startup\src\mdk\startup_MK64F12
.s
   Uses
      At line 147 in file ..\..\..\..\Libraries\startup\src\mdk\startup_MK64F12
.s
      At line 606 in file ..\..\..\..\Libraries\startup\src\mdk\startup_MK64F12
.s

CMP0_IRQHandler 0000001A



ARM Macro Assembler    Page 3 Alphabetic symbol ordering
Relocatable symbols


Symbol: CMP0_IRQHandler
   Definitions
      At line 654 in file ..\..\..\..\Libraries\startup\src\mdk\startup_MK64F12
.s
   Uses
      At line 107 in file ..\..\..\..\Libraries\startup\src\mdk\startup_MK64F12
.s
      At line 566 in file ..\..\..\..\Libraries\startup\src\mdk\startup_MK64F12
.s

CMP1_IRQHandler 0000001A

Symbol: CMP1_IRQHandler
   Definitions
      At line 655 in file ..\..\..\..\Libraries\startup\src\mdk\startup_MK64F12
.s
   Uses
      At line 108 in file ..\..\..\..\Libraries\startup\src\mdk\startup_MK64F12
.s
      At line 567 in file ..\..\..\..\Libraries\startup\src\mdk\startup_MK64F12
.s

CMP2_IRQHandler 0000001A

Symbol: CMP2_IRQHandler
   Definitions
      At line 684 in file ..\..\..\..\Libraries\startup\src\mdk\startup_MK64F12
.s
   Uses
      At line 137 in file ..\..\..\..\Libraries\startup\src\mdk\startup_MK64F12
.s
      At line 596 in file ..\..\..\..\Libraries\startup\src\mdk\startup_MK64F12
.s

CMT_IRQHandler 0000001A

Symbol: CMT_IRQHandler
   Definitions
      At line 659 in file ..\..\..\..\Libraries\startup\src\mdk\startup_MK64F12
.s
   Uses
      At line 112 in file ..\..\..\..\Libraries\startup\src\mdk\startup_MK64F12
.s
      At line 571 in file ..\..\..\..\Libraries\startup\src\mdk\startup_MK64F12
.s

DAC0_IRQHandler 0000001A

Symbol: DAC0_IRQHandler
   Definitions
      At line 670 in file ..\..\..\..\Libraries\startup\src\mdk\startup_MK64F12
.s
   Uses
      At line 123 in file ..\..\..\..\Libraries\startup\src\mdk\startup_MK64F12
.s
      At line 582 in file ..\..\..\..\Libraries\startup\src\mdk\startup_MK64F12
.s




ARM Macro Assembler    Page 4 Alphabetic symbol ordering
Relocatable symbols

DAC1_IRQHandler 0000001A

Symbol: DAC1_IRQHandler
   Definitions
      At line 686 in file ..\..\..\..\Libraries\startup\src\mdk\startup_MK64F12
.s
   Uses
      At line 139 in file ..\..\..\..\Libraries\startup\src\mdk\startup_MK64F12
.s
      At line 598 in file ..\..\..\..\Libraries\startup\src\mdk\startup_MK64F12
.s

DMA0_IRQHandler 0000001A

Symbol: DMA0_IRQHandler
   Definitions
      At line 614 in file ..\..\..\..\Libraries\startup\src\mdk\startup_MK64F12
.s
   Uses
      At line 67 in file ..\..\..\..\Libraries\startup\src\mdk\startup_MK64F12.
s
      At line 526 in file ..\..\..\..\Libraries\startup\src\mdk\startup_MK64F12
.s

DMA10_IRQHandler 0000001A

Symbol: DMA10_IRQHandler
   Definitions
      At line 624 in file ..\..\..\..\Libraries\startup\src\mdk\startup_MK64F12
.s
   Uses
      At line 77 in file ..\..\..\..\Libraries\startup\src\mdk\startup_MK64F12.
s
      At line 536 in file ..\..\..\..\Libraries\startup\src\mdk\startup_MK64F12
.s

DMA11_IRQHandler 0000001A

Symbol: DMA11_IRQHandler
   Definitions
      At line 625 in file ..\..\..\..\Libraries\startup\src\mdk\startup_MK64F12
.s
   Uses
      At line 78 in file ..\..\..\..\Libraries\startup\src\mdk\startup_MK64F12.
s
      At line 537 in file ..\..\..\..\Libraries\startup\src\mdk\startup_MK64F12
.s

DMA12_IRQHandler 0000001A

Symbol: DMA12_IRQHandler
   Definitions
      At line 626 in file ..\..\..\..\Libraries\startup\src\mdk\startup_MK64F12
.s
   Uses
      At line 79 in file ..\..\..\..\Libraries\startup\src\mdk\startup_MK64F12.
s
      At line 538 in file ..\..\..\..\Libraries\startup\src\mdk\startup_MK64F12
.s



ARM Macro Assembler    Page 5 Alphabetic symbol ordering
Relocatable symbols


DMA13_IRQHandler 0000001A

Symbol: DMA13_IRQHandler
   Definitions
      At line 627 in file ..\..\..\..\Libraries\startup\src\mdk\startup_MK64F12
.s
   Uses
      At line 80 in file ..\..\..\..\Libraries\startup\src\mdk\startup_MK64F12.
s
      At line 539 in file ..\..\..\..\Libraries\startup\src\mdk\startup_MK64F12
.s

DMA14_IRQHandler 0000001A

Symbol: DMA14_IRQHandler
   Definitions
      At line 628 in file ..\..\..\..\Libraries\startup\src\mdk\startup_MK64F12
.s
   Uses
      At line 81 in file ..\..\..\..\Libraries\startup\src\mdk\startup_MK64F12.
s
      At line 540 in file ..\..\..\..\Libraries\startup\src\mdk\startup_MK64F12
.s

DMA15_IRQHandler 0000001A

Symbol: DMA15_IRQHandler
   Definitions
      At line 629 in file ..\..\..\..\Libraries\startup\src\mdk\startup_MK64F12
.s
   Uses
      At line 82 in file ..\..\..\..\Libraries\startup\src\mdk\startup_MK64F12.
s
      At line 541 in file ..\..\..\..\Libraries\startup\src\mdk\startup_MK64F12
.s

DMA1_IRQHandler 0000001A

Symbol: DMA1_IRQHandler
   Definitions
      At line 615 in file ..\..\..\..\Libraries\startup\src\mdk\startup_MK64F12
.s
   Uses
      At line 68 in file ..\..\..\..\Libraries\startup\src\mdk\startup_MK64F12.
s
      At line 527 in file ..\..\..\..\Libraries\startup\src\mdk\startup_MK64F12
.s

DMA2_IRQHandler 0000001A

Symbol: DMA2_IRQHandler
   Definitions
      At line 616 in file ..\..\..\..\Libraries\startup\src\mdk\startup_MK64F12
.s
   Uses
      At line 69 in file ..\..\..\..\Libraries\startup\src\mdk\startup_MK64F12.
s
      At line 528 in file ..\..\..\..\Libraries\startup\src\mdk\startup_MK64F12



ARM Macro Assembler    Page 6 Alphabetic symbol ordering
Relocatable symbols

.s

DMA3_IRQHandler 0000001A

Symbol: DMA3_IRQHandler
   Definitions
      At line 617 in file ..\..\..\..\Libraries\startup\src\mdk\startup_MK64F12
.s
   Uses
      At line 70 in file ..\..\..\..\Libraries\startup\src\mdk\startup_MK64F12.
s
      At line 529 in file ..\..\..\..\Libraries\startup\src\mdk\startup_MK64F12
.s

DMA4_IRQHandler 0000001A

Symbol: DMA4_IRQHandler
   Definitions
      At line 618 in file ..\..\..\..\Libraries\startup\src\mdk\startup_MK64F12
.s
   Uses
      At line 71 in file ..\..\..\..\Libraries\startup\src\mdk\startup_MK64F12.
s
      At line 530 in file ..\..\..\..\Libraries\startup\src\mdk\startup_MK64F12
.s

DMA5_IRQHandler 0000001A

Symbol: DMA5_IRQHandler
   Definitions
      At line 619 in file ..\..\..\..\Libraries\startup\src\mdk\startup_MK64F12
.s
   Uses
      At line 72 in file ..\..\..\..\Libraries\startup\src\mdk\startup_MK64F12.
s
      At line 531 in file ..\..\..\..\Libraries\startup\src\mdk\startup_MK64F12
.s

DMA6_IRQHandler 0000001A

Symbol: DMA6_IRQHandler
   Definitions
      At line 620 in file ..\..\..\..\Libraries\startup\src\mdk\startup_MK64F12
.s
   Uses
      At line 73 in file ..\..\..\..\Libraries\startup\src\mdk\startup_MK64F12.
s
      At line 532 in file ..\..\..\..\Libraries\startup\src\mdk\startup_MK64F12
.s

DMA7_IRQHandler 0000001A

Symbol: DMA7_IRQHandler
   Definitions
      At line 621 in file ..\..\..\..\Libraries\startup\src\mdk\startup_MK64F12
.s
   Uses
      At line 74 in file ..\..\..\..\Libraries\startup\src\mdk\startup_MK64F12.
s



ARM Macro Assembler    Page 7 Alphabetic symbol ordering
Relocatable symbols

      At line 533 in file ..\..\..\..\Libraries\startup\src\mdk\startup_MK64F12
.s

DMA8_IRQHandler 0000001A

Symbol: DMA8_IRQHandler
   Definitions
      At line 622 in file ..\..\..\..\Libraries\startup\src\mdk\startup_MK64F12
.s
   Uses
      At line 75 in file ..\..\..\..\Libraries\startup\src\mdk\startup_MK64F12.
s
      At line 534 in file ..\..\..\..\Libraries\startup\src\mdk\startup_MK64F12
.s

DMA9_IRQHandler 0000001A

Symbol: DMA9_IRQHandler
   Definitions
      At line 623 in file ..\..\..\..\Libraries\startup\src\mdk\startup_MK64F12
.s
   Uses
      At line 76 in file ..\..\..\..\Libraries\startup\src\mdk\startup_MK64F12.
s
      At line 535 in file ..\..\..\..\Libraries\startup\src\mdk\startup_MK64F12
.s

DMA_Error_IRQHandler 0000001A

Symbol: DMA_Error_IRQHandler
   Definitions
      At line 630 in file ..\..\..\..\Libraries\startup\src\mdk\startup_MK64F12
.s
   Uses
      At line 83 in file ..\..\..\..\Libraries\startup\src\mdk\startup_MK64F12.
s
      At line 542 in file ..\..\..\..\Libraries\startup\src\mdk\startup_MK64F12
.s

DebugMon_Handler 00000014

Symbol: DebugMon_Handler
   Definitions
      At line 512 in file ..\..\..\..\Libraries\startup\src\mdk\startup_MK64F12
.s
   Uses
      At line 61 in file ..\..\..\..\Libraries\startup\src\mdk\startup_MK64F12.
s
      At line 513 in file ..\..\..\..\Libraries\startup\src\mdk\startup_MK64F12
.s

DefaultISR 0000001A

Symbol: DefaultISR
   Definitions
      At line 700 in file ..\..\..\..\Libraries\startup\src\mdk\startup_MK64F12
.s
   Uses
      At line 153 in file ..\..\..\..\Libraries\startup\src\mdk\startup_MK64F12



ARM Macro Assembler    Page 8 Alphabetic symbol ordering
Relocatable symbols

.s
      At line 154 in file ..\..\..\..\Libraries\startup\src\mdk\startup_MK64F12
.s
      At line 155 in file ..\..\..\..\Libraries\startup\src\mdk\startup_MK64F12
.s
      At line 156 in file ..\..\..\..\Libraries\startup\src\mdk\startup_MK64F12
.s
      At line 157 in file ..\..\..\..\Libraries\startup\src\mdk\startup_MK64F12
.s
      At line 158 in file ..\..\..\..\Libraries\startup\src\mdk\startup_MK64F12
.s
      At line 159 in file ..\..\..\..\Libraries\startup\src\mdk\startup_MK64F12
.s
      At line 160 in file ..\..\..\..\Libraries\startup\src\mdk\startup_MK64F12
.s
      At line 161 in file ..\..\..\..\Libraries\startup\src\mdk\startup_MK64F12
.s
      At line 162 in file ..\..\..\..\Libraries\startup\src\mdk\startup_MK64F12
.s
      At line 163 in file ..\..\..\..\Libraries\startup\src\mdk\startup_MK64F12
.s
      At line 164 in file ..\..\..\..\Libraries\startup\src\mdk\startup_MK64F12
.s
      At line 165 in file ..\..\..\..\Libraries\startup\src\mdk\startup_MK64F12
.s
      At line 166 in file ..\..\..\..\Libraries\startup\src\mdk\startup_MK64F12
.s
      At line 167 in file ..\..\..\..\Libraries\startup\src\mdk\startup_MK64F12
.s
      At line 168 in file ..\..\..\..\Libraries\startup\src\mdk\startup_MK64F12
.s
      At line 169 in file ..\..\..\..\Libraries\startup\src\mdk\startup_MK64F12
.s
      At line 170 in file ..\..\..\..\Libraries\startup\src\mdk\startup_MK64F12
.s
      At line 171 in file ..\..\..\..\Libraries\startup\src\mdk\startup_MK64F12
.s
      At line 172 in file ..\..\..\..\Libraries\startup\src\mdk\startup_MK64F12
.s
      At line 173 in file ..\..\..\..\Libraries\startup\src\mdk\startup_MK64F12
.s
      At line 174 in file ..\..\..\..\Libraries\startup\src\mdk\startup_MK64F12
.s
      At line 175 in file ..\..\..\..\Libraries\startup\src\mdk\startup_MK64F12
.s
      At line 176 in file ..\..\..\..\Libraries\startup\src\mdk\startup_MK64F12
.s
      At line 177 in file ..\..\..\..\Libraries\startup\src\mdk\startup_MK64F12
.s
      At line 178 in file ..\..\..\..\Libraries\startup\src\mdk\startup_MK64F12
.s
      At line 179 in file ..\..\..\..\Libraries\startup\src\mdk\startup_MK64F12
.s
      At line 180 in file ..\..\..\..\Libraries\startup\src\mdk\startup_MK64F12
.s
      At line 181 in file ..\..\..\..\Libraries\startup\src\mdk\startup_MK64F12
.s
      At line 182 in file ..\..\..\..\Libraries\startup\src\mdk\startup_MK64F12
.s



ARM Macro Assembler    Page 9 Alphabetic symbol ordering
Relocatable symbols

      At line 183 in file ..\..\..\..\Libraries\startup\src\mdk\startup_MK64F12
.s
      At line 184 in file ..\..\..\..\Libraries\startup\src\mdk\startup_MK64F12
.s
      At line 185 in file ..\..\..\..\Libraries\startup\src\mdk\startup_MK64F12
.s
      At line 186 in file ..\..\..\..\Libraries\startup\src\mdk\startup_MK64F12
.s
      At line 187 in file ..\..\..\..\Libraries\startup\src\mdk\startup_MK64F12
.s
      At line 188 in file ..\..\..\..\Libraries\startup\src\mdk\startup_MK64F12
.s
      At line 189 in file ..\..\..\..\Libraries\startup\src\mdk\startup_MK64F12
.s
      At line 190 in file ..\..\..\..\Libraries\startup\src\mdk\startup_MK64F12
.s
      At line 191 in file ..\..\..\..\Libraries\startup\src\mdk\startup_MK64F12
.s
      At line 192 in file ..\..\..\..\Libraries\startup\src\mdk\startup_MK64F12
.s
      At line 193 in file ..\..\..\..\Libraries\startup\src\mdk\startup_MK64F12
.s
      At line 194 in file ..\..\..\..\Libraries\startup\src\mdk\startup_MK64F12
.s
      At line 195 in file ..\..\..\..\Libraries\startup\src\mdk\startup_MK64F12
.s
      At line 196 in file ..\..\..\..\Libraries\startup\src\mdk\startup_MK64F12
.s
      At line 197 in file ..\..\..\..\Libraries\startup\src\mdk\startup_MK64F12
.s
      At line 198 in file ..\..\..\..\Libraries\startup\src\mdk\startup_MK64F12
.s
      At line 199 in file ..\..\..\..\Libraries\startup\src\mdk\startup_MK64F12
.s
      At line 200 in file ..\..\..\..\Libraries\startup\src\mdk\startup_MK64F12
.s
      At line 201 in file ..\..\..\..\Libraries\startup\src\mdk\startup_MK64F12
.s
      At line 202 in file ..\..\..\..\Libraries\startup\src\mdk\startup_MK64F12
.s
      At line 203 in file ..\..\..\..\Libraries\startup\src\mdk\startup_MK64F12
.s
      At line 204 in file ..\..\..\..\Libraries\startup\src\mdk\startup_MK64F12
.s
      At line 205 in file ..\..\..\..\Libraries\startup\src\mdk\startup_MK64F12
.s
      At line 206 in file ..\..\..\..\Libraries\startup\src\mdk\startup_MK64F12
.s
      At line 207 in file ..\..\..\..\Libraries\startup\src\mdk\startup_MK64F12
.s
      At line 208 in file ..\..\..\..\Libraries\startup\src\mdk\startup_MK64F12
.s
      At line 209 in file ..\..\..\..\Libraries\startup\src\mdk\startup_MK64F12
.s
      At line 210 in file ..\..\..\..\Libraries\startup\src\mdk\startup_MK64F12
.s
      At line 211 in file ..\..\..\..\Libraries\startup\src\mdk\startup_MK64F12
.s
      At line 212 in file ..\..\..\..\Libraries\startup\src\mdk\startup_MK64F12



ARM Macro Assembler    Page 10 Alphabetic symbol ordering
Relocatable symbols

.s
      At line 213 in file ..\..\..\..\Libraries\startup\src\mdk\startup_MK64F12
.s
      At line 214 in file ..\..\..\..\Libraries\startup\src\mdk\startup_MK64F12
.s
      At line 215 in file ..\..\..\..\Libraries\startup\src\mdk\startup_MK64F12
.s
      At line 216 in file ..\..\..\..\Libraries\startup\src\mdk\startup_MK64F12
.s
      At line 217 in file ..\..\..\..\Libraries\startup\src\mdk\startup_MK64F12
.s
      At line 218 in file ..\..\..\..\Libraries\startup\src\mdk\startup_MK64F12
.s
      At line 219 in file ..\..\..\..\Libraries\startup\src\mdk\startup_MK64F12
.s
      At line 220 in file ..\..\..\..\Libraries\startup\src\mdk\startup_MK64F12
.s
      At line 221 in file ..\..\..\..\Libraries\startup\src\mdk\startup_MK64F12
.s
      At line 222 in file ..\..\..\..\Libraries\startup\src\mdk\startup_MK64F12
.s
      At line 223 in file ..\..\..\..\Libraries\startup\src\mdk\startup_MK64F12
.s
      At line 224 in file ..\..\..\..\Libraries\startup\src\mdk\startup_MK64F12
.s
      At line 225 in file ..\..\..\..\Libraries\startup\src\mdk\startup_MK64F12
.s
      At line 226 in file ..\..\..\..\Libraries\startup\src\mdk\startup_MK64F12
.s
      At line 227 in file ..\..\..\..\Libraries\startup\src\mdk\startup_MK64F12
.s
      At line 228 in file ..\..\..\..\Libraries\startup\src\mdk\startup_MK64F12
.s
      At line 229 in file ..\..\..\..\Libraries\startup\src\mdk\startup_MK64F12
.s
      At line 230 in file ..\..\..\..\Libraries\startup\src\mdk\startup_MK64F12
.s
      At line 231 in file ..\..\..\..\Libraries\startup\src\mdk\startup_MK64F12
.s
      At line 232 in file ..\..\..\..\Libraries\startup\src\mdk\startup_MK64F12
.s
      At line 233 in file ..\..\..\..\Libraries\startup\src\mdk\startup_MK64F12
.s
      At line 234 in file ..\..\..\..\Libraries\startup\src\mdk\startup_MK64F12
.s
      At line 235 in file ..\..\..\..\Libraries\startup\src\mdk\startup_MK64F12
.s
      At line 236 in file ..\..\..\..\Libraries\startup\src\mdk\startup_MK64F12
.s
      At line 237 in file ..\..\..\..\Libraries\startup\src\mdk\startup_MK64F12
.s
      At line 238 in file ..\..\..\..\Libraries\startup\src\mdk\startup_MK64F12
.s
      At line 239 in file ..\..\..\..\Libraries\startup\src\mdk\startup_MK64F12
.s
      At line 240 in file ..\..\..\..\Libraries\startup\src\mdk\startup_MK64F12
.s
      At line 241 in file ..\..\..\..\Libraries\startup\src\mdk\startup_MK64F12
.s



ARM Macro Assembler    Page 11 Alphabetic symbol ordering
Relocatable symbols

      At line 242 in file ..\..\..\..\Libraries\startup\src\mdk\startup_MK64F12
.s
      At line 243 in file ..\..\..\..\Libraries\startup\src\mdk\startup_MK64F12
.s
      At line 244 in file ..\..\..\..\Libraries\startup\src\mdk\startup_MK64F12
.s
      At line 245 in file ..\..\..\..\Libraries\startup\src\mdk\startup_MK64F12
.s
      At line 246 in file ..\..\..\..\Libraries\startup\src\mdk\startup_MK64F12
.s
      At line 247 in file ..\..\..\..\Libraries\startup\src\mdk\startup_MK64F12
.s
      At line 248 in file ..\..\..\..\Libraries\startup\src\mdk\startup_MK64F12
.s
      At line 249 in file ..\..\..\..\Libraries\startup\src\mdk\startup_MK64F12
.s
      At line 250 in file ..\..\..\..\Libraries\startup\src\mdk\startup_MK64F12
.s
      At line 251 in file ..\..\..\..\Libraries\startup\src\mdk\startup_MK64F12
.s
      At line 252 in file ..\..\..\..\Libraries\startup\src\mdk\startup_MK64F12
.s
      At line 253 in file ..\..\..\..\Libraries\startup\src\mdk\startup_MK64F12
.s
      At line 254 in file ..\..\..\..\Libraries\startup\src\mdk\startup_MK64F12
.s
      At line 255 in file ..\..\..\..\Libraries\startup\src\mdk\startup_MK64F12
.s
      At line 256 in file ..\..\..\..\Libraries\startup\src\mdk\startup_MK64F12
.s
      At line 257 in file ..\..\..\..\Libraries\startup\src\mdk\startup_MK64F12
.s
      At line 258 in file ..\..\..\..\Libraries\startup\src\mdk\startup_MK64F12
.s
      At line 259 in file ..\..\..\..\Libraries\startup\src\mdk\startup_MK64F12
.s
      At line 260 in file ..\..\..\..\Libraries\startup\src\mdk\startup_MK64F12
.s
      At line 261 in file ..\..\..\..\Libraries\startup\src\mdk\startup_MK64F12
.s
      At line 262 in file ..\..\..\..\Libraries\startup\src\mdk\startup_MK64F12
.s
      At line 263 in file ..\..\..\..\Libraries\startup\src\mdk\startup_MK64F12
.s
      At line 264 in file ..\..\..\..\Libraries\startup\src\mdk\startup_MK64F12
.s
      At line 265 in file ..\..\..\..\Libraries\startup\src\mdk\startup_MK64F12
.s
      At line 266 in file ..\..\..\..\Libraries\startup\src\mdk\startup_MK64F12
.s
      At line 267 in file ..\..\..\..\Libraries\startup\src\mdk\startup_MK64F12
.s
      At line 268 in file ..\..\..\..\Libraries\startup\src\mdk\startup_MK64F12
.s
      At line 269 in file ..\..\..\..\Libraries\startup\src\mdk\startup_MK64F12
.s
      At line 270 in file ..\..\..\..\Libraries\startup\src\mdk\startup_MK64F12
.s
      At line 271 in file ..\..\..\..\Libraries\startup\src\mdk\startup_MK64F12



ARM Macro Assembler    Page 12 Alphabetic symbol ordering
Relocatable symbols

.s
      At line 272 in file ..\..\..\..\Libraries\startup\src\mdk\startup_MK64F12
.s
      At line 273 in file ..\..\..\..\Libraries\startup\src\mdk\startup_MK64F12
.s
      At line 274 in file ..\..\..\..\Libraries\startup\src\mdk\startup_MK64F12
.s
      At line 275 in file ..\..\..\..\Libraries\startup\src\mdk\startup_MK64F12
.s
      At line 276 in file ..\..\..\..\Libraries\startup\src\mdk\startup_MK64F12
.s
      At line 277 in file ..\..\..\..\Libraries\startup\src\mdk\startup_MK64F12
.s
      At line 278 in file ..\..\..\..\Libraries\startup\src\mdk\startup_MK64F12
.s
      At line 279 in file ..\..\..\..\Libraries\startup\src\mdk\startup_MK64F12
.s
      At line 280 in file ..\..\..\..\Libraries\startup\src\mdk\startup_MK64F12
.s
      At line 281 in file ..\..\..\..\Libraries\startup\src\mdk\startup_MK64F12
.s
      At line 282 in file ..\..\..\..\Libraries\startup\src\mdk\startup_MK64F12
.s
      At line 283 in file ..\..\..\..\Libraries\startup\src\mdk\startup_MK64F12
.s
      At line 284 in file ..\..\..\..\Libraries\startup\src\mdk\startup_MK64F12
.s
      At line 285 in file ..\..\..\..\Libraries\startup\src\mdk\startup_MK64F12
.s
      At line 286 in file ..\..\..\..\Libraries\startup\src\mdk\startup_MK64F12
.s
      At line 287 in file ..\..\..\..\Libraries\startup\src\mdk\startup_MK64F12
.s
      At line 288 in file ..\..\..\..\Libraries\startup\src\mdk\startup_MK64F12
.s
      At line 289 in file ..\..\..\..\Libraries\startup\src\mdk\startup_MK64F12
.s
      At line 290 in file ..\..\..\..\Libraries\startup\src\mdk\startup_MK64F12
.s
      At line 291 in file ..\..\..\..\Libraries\startup\src\mdk\startup_MK64F12
.s
      At line 292 in file ..\..\..\..\Libraries\startup\src\mdk\startup_MK64F12
.s
      At line 293 in file ..\..\..\..\Libraries\startup\src\mdk\startup_MK64F12
.s
      At line 294 in file ..\..\..\..\Libraries\startup\src\mdk\startup_MK64F12
.s
      At line 295 in file ..\..\..\..\Libraries\startup\src\mdk\startup_MK64F12
.s
      At line 296 in file ..\..\..\..\Libraries\startup\src\mdk\startup_MK64F12
.s
      At line 297 in file ..\..\..\..\Libraries\startup\src\mdk\startup_MK64F12
.s
      At line 298 in file ..\..\..\..\Libraries\startup\src\mdk\startup_MK64F12
.s
      At line 299 in file ..\..\..\..\Libraries\startup\src\mdk\startup_MK64F12
.s
      At line 300 in file ..\..\..\..\Libraries\startup\src\mdk\startup_MK64F12
.s



ARM Macro Assembler    Page 13 Alphabetic symbol ordering
Relocatable symbols

      At line 301 in file ..\..\..\..\Libraries\startup\src\mdk\startup_MK64F12
.s
      At line 302 in file ..\..\..\..\Libraries\startup\src\mdk\startup_MK64F12
.s
      At line 303 in file ..\..\..\..\Libraries\startup\src\mdk\startup_MK64F12
.s
      At line 304 in file ..\..\..\..\Libraries\startup\src\mdk\startup_MK64F12
.s
      At line 305 in file ..\..\..\..\Libraries\startup\src\mdk\startup_MK64F12
.s
      At line 306 in file ..\..\..\..\Libraries\startup\src\mdk\startup_MK64F12
.s
      At line 612 in file ..\..\..\..\Libraries\startup\src\mdk\startup_MK64F12
.s

Default_Handler 0000001A

Symbol: Default_Handler
   Definitions
      At line 525 in file ..\..\..\..\Libraries\startup\src\mdk\startup_MK64F12
.s
   Uses
      None
Comment: Default_Handler unused
ENET_1588_Timer_IRQHandler 0000001A

Symbol: ENET_1588_Timer_IRQHandler
   Definitions
      At line 696 in file ..\..\..\..\Libraries\startup\src\mdk\startup_MK64F12
.s
   Uses
      At line 149 in file ..\..\..\..\Libraries\startup\src\mdk\startup_MK64F12
.s
      At line 608 in file ..\..\..\..\Libraries\startup\src\mdk\startup_MK64F12
.s

ENET_Error_IRQHandler 0000001A

Symbol: ENET_Error_IRQHandler
   Definitions
      At line 699 in file ..\..\..\..\Libraries\startup\src\mdk\startup_MK64F12
.s
   Uses
      At line 152 in file ..\..\..\..\Libraries\startup\src\mdk\startup_MK64F12
.s
      At line 611 in file ..\..\..\..\Libraries\startup\src\mdk\startup_MK64F12
.s

ENET_Receive_IRQHandler 0000001A

Symbol: ENET_Receive_IRQHandler
   Definitions
      At line 698 in file ..\..\..\..\Libraries\startup\src\mdk\startup_MK64F12
.s
   Uses
      At line 151 in file ..\..\..\..\Libraries\startup\src\mdk\startup_MK64F12
.s
      At line 610 in file ..\..\..\..\Libraries\startup\src\mdk\startup_MK64F12
.s



ARM Macro Assembler    Page 14 Alphabetic symbol ordering
Relocatable symbols


ENET_Transmit_IRQHandler 0000001A

Symbol: ENET_Transmit_IRQHandler
   Definitions
      At line 697 in file ..\..\..\..\Libraries\startup\src\mdk\startup_MK64F12
.s
   Uses
      At line 150 in file ..\..\..\..\Libraries\startup\src\mdk\startup_MK64F12
.s
      At line 609 in file ..\..\..\..\Libraries\startup\src\mdk\startup_MK64F12
.s

FTFE_IRQHandler 0000001A

Symbol: FTFE_IRQHandler
   Definitions
      At line 632 in file ..\..\..\..\Libraries\startup\src\mdk\startup_MK64F12
.s
   Uses
      At line 85 in file ..\..\..\..\Libraries\startup\src\mdk\startup_MK64F12.
s
      At line 544 in file ..\..\..\..\Libraries\startup\src\mdk\startup_MK64F12
.s

FTM0_IRQHandler 0000001A

Symbol: FTM0_IRQHandler
   Definitions
      At line 656 in file ..\..\..\..\Libraries\startup\src\mdk\startup_MK64F12
.s
   Uses
      At line 109 in file ..\..\..\..\Libraries\startup\src\mdk\startup_MK64F12
.s
      At line 568 in file ..\..\..\..\Libraries\startup\src\mdk\startup_MK64F12
.s

FTM1_IRQHandler 0000001A

Symbol: FTM1_IRQHandler
   Definitions
      At line 657 in file ..\..\..\..\Libraries\startup\src\mdk\startup_MK64F12
.s
   Uses
      At line 110 in file ..\..\..\..\Libraries\startup\src\mdk\startup_MK64F12
.s
      At line 569 in file ..\..\..\..\Libraries\startup\src\mdk\startup_MK64F12
.s

FTM2_IRQHandler 0000001A

Symbol: FTM2_IRQHandler
   Definitions
      At line 658 in file ..\..\..\..\Libraries\startup\src\mdk\startup_MK64F12
.s
   Uses
      At line 111 in file ..\..\..\..\Libraries\startup\src\mdk\startup_MK64F12
.s
      At line 570 in file ..\..\..\..\Libraries\startup\src\mdk\startup_MK64F12



ARM Macro Assembler    Page 15 Alphabetic symbol ordering
Relocatable symbols

.s

FTM3_IRQHandler 0000001A

Symbol: FTM3_IRQHandler
   Definitions
      At line 685 in file ..\..\..\..\Libraries\startup\src\mdk\startup_MK64F12
.s
   Uses
      At line 138 in file ..\..\..\..\Libraries\startup\src\mdk\startup_MK64F12
.s
      At line 597 in file ..\..\..\..\Libraries\startup\src\mdk\startup_MK64F12
.s

HardFault_Handler 0000000A

Symbol: HardFault_Handler
   Definitions
      At line 488 in file ..\..\..\..\Libraries\startup\src\mdk\startup_MK64F12
.s
   Uses
      At line 52 in file ..\..\..\..\Libraries\startup\src\mdk\startup_MK64F12.
s
      At line 489 in file ..\..\..\..\Libraries\startup\src\mdk\startup_MK64F12
.s

I2C0_IRQHandler 0000001A

Symbol: I2C0_IRQHandler
   Definitions
      At line 638 in file ..\..\..\..\Libraries\startup\src\mdk\startup_MK64F12
.s
   Uses
      At line 91 in file ..\..\..\..\Libraries\startup\src\mdk\startup_MK64F12.
s
      At line 550 in file ..\..\..\..\Libraries\startup\src\mdk\startup_MK64F12
.s

I2C1_IRQHandler 0000001A

Symbol: I2C1_IRQHandler
   Definitions
      At line 639 in file ..\..\..\..\Libraries\startup\src\mdk\startup_MK64F12
.s
   Uses
      At line 92 in file ..\..\..\..\Libraries\startup\src\mdk\startup_MK64F12.
s
      At line 551 in file ..\..\..\..\Libraries\startup\src\mdk\startup_MK64F12
.s

I2C2_IRQHandler 0000001A

Symbol: I2C2_IRQHandler
   Definitions
      At line 688 in file ..\..\..\..\Libraries\startup\src\mdk\startup_MK64F12
.s
   Uses
      At line 141 in file ..\..\..\..\Libraries\startup\src\mdk\startup_MK64F12
.s



ARM Macro Assembler    Page 16 Alphabetic symbol ordering
Relocatable symbols

      At line 600 in file ..\..\..\..\Libraries\startup\src\mdk\startup_MK64F12
.s

I2S0_Rx_IRQHandler 0000001A

Symbol: I2S0_Rx_IRQHandler
   Definitions
      At line 643 in file ..\..\..\..\Libraries\startup\src\mdk\startup_MK64F12
.s
   Uses
      At line 96 in file ..\..\..\..\Libraries\startup\src\mdk\startup_MK64F12.
s
      At line 555 in file ..\..\..\..\Libraries\startup\src\mdk\startup_MK64F12
.s

I2S0_Tx_IRQHandler 0000001A

Symbol: I2S0_Tx_IRQHandler
   Definitions
      At line 642 in file ..\..\..\..\Libraries\startup\src\mdk\startup_MK64F12
.s
   Uses
      At line 95 in file ..\..\..\..\Libraries\startup\src\mdk\startup_MK64F12.
s
      At line 554 in file ..\..\..\..\Libraries\startup\src\mdk\startup_MK64F12
.s

LLW_IRQHandler 0000001A

Symbol: LLW_IRQHandler
   Definitions
      At line 635 in file ..\..\..\..\Libraries\startup\src\mdk\startup_MK64F12
.s
   Uses
      At line 88 in file ..\..\..\..\Libraries\startup\src\mdk\startup_MK64F12.
s
      At line 547 in file ..\..\..\..\Libraries\startup\src\mdk\startup_MK64F12
.s

LPTimer_IRQHandler 0000001A

Symbol: LPTimer_IRQHandler
   Definitions
      At line 672 in file ..\..\..\..\Libraries\startup\src\mdk\startup_MK64F12
.s
   Uses
      At line 125 in file ..\..\..\..\Libraries\startup\src\mdk\startup_MK64F12
.s
      At line 584 in file ..\..\..\..\Libraries\startup\src\mdk\startup_MK64F12
.s

LVD_LVW_IRQHandler 0000001A

Symbol: LVD_LVW_IRQHandler
   Definitions
      At line 634 in file ..\..\..\..\Libraries\startup\src\mdk\startup_MK64F12
.s
   Uses
      At line 87 in file ..\..\..\..\Libraries\startup\src\mdk\startup_MK64F12.



ARM Macro Assembler    Page 17 Alphabetic symbol ordering
Relocatable symbols

s
      At line 546 in file ..\..\..\..\Libraries\startup\src\mdk\startup_MK64F12
.s

MCG_IRQHandler 0000001A

Symbol: MCG_IRQHandler
   Definitions
      At line 671 in file ..\..\..\..\Libraries\startup\src\mdk\startup_MK64F12
.s
   Uses
      At line 124 in file ..\..\..\..\Libraries\startup\src\mdk\startup_MK64F12
.s
      At line 583 in file ..\..\..\..\Libraries\startup\src\mdk\startup_MK64F12
.s

MCM_IRQHandler 0000001A

Symbol: MCM_IRQHandler
   Definitions
      At line 631 in file ..\..\..\..\Libraries\startup\src\mdk\startup_MK64F12
.s
   Uses
      At line 84 in file ..\..\..\..\Libraries\startup\src\mdk\startup_MK64F12.
s
      At line 543 in file ..\..\..\..\Libraries\startup\src\mdk\startup_MK64F12
.s

MemManage_Handler 0000000C

Symbol: MemManage_Handler
   Definitions
      At line 493 in file ..\..\..\..\Libraries\startup\src\mdk\startup_MK64F12
.s
   Uses
      At line 53 in file ..\..\..\..\Libraries\startup\src\mdk\startup_MK64F12.
s
      At line 494 in file ..\..\..\..\Libraries\startup\src\mdk\startup_MK64F12
.s

NMI_Handler 00000008

Symbol: NMI_Handler
   Definitions
      At line 483 in file ..\..\..\..\Libraries\startup\src\mdk\startup_MK64F12
.s
   Uses
      At line 51 in file ..\..\..\..\Libraries\startup\src\mdk\startup_MK64F12.
s
      At line 484 in file ..\..\..\..\Libraries\startup\src\mdk\startup_MK64F12
.s

PDB0_IRQHandler 0000001A

Symbol: PDB0_IRQHandler
   Definitions
      At line 666 in file ..\..\..\..\Libraries\startup\src\mdk\startup_MK64F12
.s
   Uses



ARM Macro Assembler    Page 18 Alphabetic symbol ordering
Relocatable symbols

      At line 119 in file ..\..\..\..\Libraries\startup\src\mdk\startup_MK64F12
.s
      At line 578 in file ..\..\..\..\Libraries\startup\src\mdk\startup_MK64F12
.s

PIT0_IRQHandler 0000001A

Symbol: PIT0_IRQHandler
   Definitions
      At line 662 in file ..\..\..\..\Libraries\startup\src\mdk\startup_MK64F12
.s
   Uses
      At line 115 in file ..\..\..\..\Libraries\startup\src\mdk\startup_MK64F12
.s
      At line 574 in file ..\..\..\..\Libraries\startup\src\mdk\startup_MK64F12
.s

PIT1_IRQHandler 0000001A

Symbol: PIT1_IRQHandler
   Definitions
      At line 663 in file ..\..\..\..\Libraries\startup\src\mdk\startup_MK64F12
.s
   Uses
      At line 116 in file ..\..\..\..\Libraries\startup\src\mdk\startup_MK64F12
.s
      At line 575 in file ..\..\..\..\Libraries\startup\src\mdk\startup_MK64F12
.s

PIT2_IRQHandler 0000001A

Symbol: PIT2_IRQHandler
   Definitions
      At line 664 in file ..\..\..\..\Libraries\startup\src\mdk\startup_MK64F12
.s
   Uses
      At line 117 in file ..\..\..\..\Libraries\startup\src\mdk\startup_MK64F12
.s
      At line 576 in file ..\..\..\..\Libraries\startup\src\mdk\startup_MK64F12
.s

PIT3_IRQHandler 0000001A

Symbol: PIT3_IRQHandler
   Definitions
      At line 665 in file ..\..\..\..\Libraries\startup\src\mdk\startup_MK64F12
.s
   Uses
      At line 118 in file ..\..\..\..\Libraries\startup\src\mdk\startup_MK64F12
.s
      At line 577 in file ..\..\..\..\Libraries\startup\src\mdk\startup_MK64F12
.s

PORTA_IRQHandler 0000001A

Symbol: PORTA_IRQHandler
   Definitions
      At line 673 in file ..\..\..\..\Libraries\startup\src\mdk\startup_MK64F12
.s



ARM Macro Assembler    Page 19 Alphabetic symbol ordering
Relocatable symbols

   Uses
      At line 126 in file ..\..\..\..\Libraries\startup\src\mdk\startup_MK64F12
.s
      At line 585 in file ..\..\..\..\Libraries\startup\src\mdk\startup_MK64F12
.s

PORTB_IRQHandler 0000001A

Symbol: PORTB_IRQHandler
   Definitions
      At line 674 in file ..\..\..\..\Libraries\startup\src\mdk\startup_MK64F12
.s
   Uses
      At line 127 in file ..\..\..\..\Libraries\startup\src\mdk\startup_MK64F12
.s
      At line 586 in file ..\..\..\..\Libraries\startup\src\mdk\startup_MK64F12
.s

PORTC_IRQHandler 0000001A

Symbol: PORTC_IRQHandler
   Definitions
      At line 675 in file ..\..\..\..\Libraries\startup\src\mdk\startup_MK64F12
.s
   Uses
      At line 128 in file ..\..\..\..\Libraries\startup\src\mdk\startup_MK64F12
.s
      At line 587 in file ..\..\..\..\Libraries\startup\src\mdk\startup_MK64F12
.s

PORTD_IRQHandler 0000001A

Symbol: PORTD_IRQHandler
   Definitions
      At line 676 in file ..\..\..\..\Libraries\startup\src\mdk\startup_MK64F12
.s
   Uses
      At line 129 in file ..\..\..\..\Libraries\startup\src\mdk\startup_MK64F12
.s
      At line 588 in file ..\..\..\..\Libraries\startup\src\mdk\startup_MK64F12
.s

PORTE_IRQHandler 0000001A

Symbol: PORTE_IRQHandler
   Definitions
      At line 677 in file ..\..\..\..\Libraries\startup\src\mdk\startup_MK64F12
.s
   Uses
      At line 130 in file ..\..\..\..\Libraries\startup\src\mdk\startup_MK64F12
.s
      At line 589 in file ..\..\..\..\Libraries\startup\src\mdk\startup_MK64F12
.s

PendSV_Handler 00000016

Symbol: PendSV_Handler
   Definitions
      At line 516 in file ..\..\..\..\Libraries\startup\src\mdk\startup_MK64F12



ARM Macro Assembler    Page 20 Alphabetic symbol ordering
Relocatable symbols

.s
   Uses
      At line 63 in file ..\..\..\..\Libraries\startup\src\mdk\startup_MK64F12.
s
      At line 517 in file ..\..\..\..\Libraries\startup\src\mdk\startup_MK64F12
.s

RNG_IRQHandler 0000001A

Symbol: RNG_IRQHandler
   Definitions
      At line 637 in file ..\..\..\..\Libraries\startup\src\mdk\startup_MK64F12
.s
   Uses
      At line 90 in file ..\..\..\..\Libraries\startup\src\mdk\startup_MK64F12.
s
      At line 549 in file ..\..\..\..\Libraries\startup\src\mdk\startup_MK64F12
.s

RTC_IRQHandler 0000001A

Symbol: RTC_IRQHandler
   Definitions
      At line 660 in file ..\..\..\..\Libraries\startup\src\mdk\startup_MK64F12
.s
   Uses
      At line 113 in file ..\..\..\..\Libraries\startup\src\mdk\startup_MK64F12
.s
      At line 572 in file ..\..\..\..\Libraries\startup\src\mdk\startup_MK64F12
.s

RTC_Seconds_IRQHandler 0000001A

Symbol: RTC_Seconds_IRQHandler
   Definitions
      At line 661 in file ..\..\..\..\Libraries\startup\src\mdk\startup_MK64F12
.s
   Uses
      At line 114 in file ..\..\..\..\Libraries\startup\src\mdk\startup_MK64F12
.s
      At line 573 in file ..\..\..\..\Libraries\startup\src\mdk\startup_MK64F12
.s

Read_Collision_IRQHandler 0000001A

Symbol: Read_Collision_IRQHandler
   Definitions
      At line 633 in file ..\..\..\..\Libraries\startup\src\mdk\startup_MK64F12
.s
   Uses
      At line 86 in file ..\..\..\..\Libraries\startup\src\mdk\startup_MK64F12.
s
      At line 545 in file ..\..\..\..\Libraries\startup\src\mdk\startup_MK64F12
.s

Reserved71_IRQHandler 0000001A

Symbol: Reserved71_IRQHandler
   Definitions



ARM Macro Assembler    Page 21 Alphabetic symbol ordering
Relocatable symbols

      At line 669 in file ..\..\..\..\Libraries\startup\src\mdk\startup_MK64F12
.s
   Uses
      At line 122 in file ..\..\..\..\Libraries\startup\src\mdk\startup_MK64F12
.s
      At line 581 in file ..\..\..\..\Libraries\startup\src\mdk\startup_MK64F12
.s

Reset_Handler 00000000

Symbol: Reset_Handler
   Definitions
      At line 470 in file ..\..\..\..\Libraries\startup\src\mdk\startup_MK64F12
.s
   Uses
      At line 50 in file ..\..\..\..\Libraries\startup\src\mdk\startup_MK64F12.
s
      At line 471 in file ..\..\..\..\Libraries\startup\src\mdk\startup_MK64F12
.s

SDHC_IRQHandler 0000001A

Symbol: SDHC_IRQHandler
   Definitions
      At line 695 in file ..\..\..\..\Libraries\startup\src\mdk\startup_MK64F12
.s
   Uses
      At line 148 in file ..\..\..\..\Libraries\startup\src\mdk\startup_MK64F12
.s
      At line 607 in file ..\..\..\..\Libraries\startup\src\mdk\startup_MK64F12
.s

SPI0_IRQHandler 0000001A

Symbol: SPI0_IRQHandler
   Definitions
      At line 640 in file ..\..\..\..\Libraries\startup\src\mdk\startup_MK64F12
.s
   Uses
      At line 93 in file ..\..\..\..\Libraries\startup\src\mdk\startup_MK64F12.
s
      At line 552 in file ..\..\..\..\Libraries\startup\src\mdk\startup_MK64F12
.s

SPI1_IRQHandler 0000001A

Symbol: SPI1_IRQHandler
   Definitions
      At line 641 in file ..\..\..\..\Libraries\startup\src\mdk\startup_MK64F12
.s
   Uses
      At line 94 in file ..\..\..\..\Libraries\startup\src\mdk\startup_MK64F12.
s
      At line 553 in file ..\..\..\..\Libraries\startup\src\mdk\startup_MK64F12
.s

SPI2_IRQHandler 0000001A

Symbol: SPI2_IRQHandler



ARM Macro Assembler    Page 22 Alphabetic symbol ordering
Relocatable symbols

   Definitions
      At line 679 in file ..\..\..\..\Libraries\startup\src\mdk\startup_MK64F12
.s
   Uses
      At line 132 in file ..\..\..\..\Libraries\startup\src\mdk\startup_MK64F12
.s
      At line 591 in file ..\..\..\..\Libraries\startup\src\mdk\startup_MK64F12
.s

SVC_Handler 00000012

Symbol: SVC_Handler
   Definitions
      At line 507 in file ..\..\..\..\Libraries\startup\src\mdk\startup_MK64F12
.s
   Uses
      At line 60 in file ..\..\..\..\Libraries\startup\src\mdk\startup_MK64F12.
s
      At line 508 in file ..\..\..\..\Libraries\startup\src\mdk\startup_MK64F12
.s

SWI_IRQHandler 0000001A

Symbol: SWI_IRQHandler
   Definitions
      At line 678 in file ..\..\..\..\Libraries\startup\src\mdk\startup_MK64F12
.s
   Uses
      At line 131 in file ..\..\..\..\Libraries\startup\src\mdk\startup_MK64F12
.s
      At line 590 in file ..\..\..\..\Libraries\startup\src\mdk\startup_MK64F12
.s

SysTick_Handler 00000018

Symbol: SysTick_Handler
   Definitions
      At line 520 in file ..\..\..\..\Libraries\startup\src\mdk\startup_MK64F12
.s
   Uses
      At line 64 in file ..\..\..\..\Libraries\startup\src\mdk\startup_MK64F12.
s
      At line 521 in file ..\..\..\..\Libraries\startup\src\mdk\startup_MK64F12
.s

UART0_ERR_IRQHandler 0000001A

Symbol: UART0_ERR_IRQHandler
   Definitions
      At line 646 in file ..\..\..\..\Libraries\startup\src\mdk\startup_MK64F12
.s
   Uses
      At line 99 in file ..\..\..\..\Libraries\startup\src\mdk\startup_MK64F12.
s
      At line 558 in file ..\..\..\..\Libraries\startup\src\mdk\startup_MK64F12
.s

UART0_LON_IRQHandler 0000001A




ARM Macro Assembler    Page 23 Alphabetic symbol ordering
Relocatable symbols

Symbol: UART0_LON_IRQHandler
   Definitions
      At line 644 in file ..\..\..\..\Libraries\startup\src\mdk\startup_MK64F12
.s
   Uses
      At line 97 in file ..\..\..\..\Libraries\startup\src\mdk\startup_MK64F12.
s
      At line 556 in file ..\..\..\..\Libraries\startup\src\mdk\startup_MK64F12
.s

UART0_RX_TX_IRQHandler 0000001A

Symbol: UART0_RX_TX_IRQHandler
   Definitions
      At line 645 in file ..\..\..\..\Libraries\startup\src\mdk\startup_MK64F12
.s
   Uses
      At line 98 in file ..\..\..\..\Libraries\startup\src\mdk\startup_MK64F12.
s
      At line 557 in file ..\..\..\..\Libraries\startup\src\mdk\startup_MK64F12
.s

UART1_ERR_IRQHandler 0000001A

Symbol: UART1_ERR_IRQHandler
   Definitions
      At line 648 in file ..\..\..\..\Libraries\startup\src\mdk\startup_MK64F12
.s
   Uses
      At line 101 in file ..\..\..\..\Libraries\startup\src\mdk\startup_MK64F12
.s
      At line 560 in file ..\..\..\..\Libraries\startup\src\mdk\startup_MK64F12
.s

UART1_RX_TX_IRQHandler 0000001A

Symbol: UART1_RX_TX_IRQHandler
   Definitions
      At line 647 in file ..\..\..\..\Libraries\startup\src\mdk\startup_MK64F12
.s
   Uses
      At line 100 in file ..\..\..\..\Libraries\startup\src\mdk\startup_MK64F12
.s
      At line 559 in file ..\..\..\..\Libraries\startup\src\mdk\startup_MK64F12
.s

UART2_ERR_IRQHandler 0000001A

Symbol: UART2_ERR_IRQHandler
   Definitions
      At line 650 in file ..\..\..\..\Libraries\startup\src\mdk\startup_MK64F12
.s
   Uses
      At line 103 in file ..\..\..\..\Libraries\startup\src\mdk\startup_MK64F12
.s
      At line 562 in file ..\..\..\..\Libraries\startup\src\mdk\startup_MK64F12
.s

UART2_RX_TX_IRQHandler 0000001A



ARM Macro Assembler    Page 24 Alphabetic symbol ordering
Relocatable symbols


Symbol: UART2_RX_TX_IRQHandler
   Definitions
      At line 649 in file ..\..\..\..\Libraries\startup\src\mdk\startup_MK64F12
.s
   Uses
      At line 102 in file ..\..\..\..\Libraries\startup\src\mdk\startup_MK64F12
.s
      At line 561 in file ..\..\..\..\Libraries\startup\src\mdk\startup_MK64F12
.s

UART3_ERR_IRQHandler 0000001A

Symbol: UART3_ERR_IRQHandler
   Definitions
      At line 652 in file ..\..\..\..\Libraries\startup\src\mdk\startup_MK64F12
.s
   Uses
      At line 105 in file ..\..\..\..\Libraries\startup\src\mdk\startup_MK64F12
.s
      At line 564 in file ..\..\..\..\Libraries\startup\src\mdk\startup_MK64F12
.s

UART3_RX_TX_IRQHandler 0000001A

Symbol: UART3_RX_TX_IRQHandler
   Definitions
      At line 651 in file ..\..\..\..\Libraries\startup\src\mdk\startup_MK64F12
.s
   Uses
      At line 104 in file ..\..\..\..\Libraries\startup\src\mdk\startup_MK64F12
.s
      At line 563 in file ..\..\..\..\Libraries\startup\src\mdk\startup_MK64F12
.s

UART4_ERR_IRQHandler 0000001A

Symbol: UART4_ERR_IRQHandler
   Definitions
      At line 681 in file ..\..\..\..\Libraries\startup\src\mdk\startup_MK64F12
.s
   Uses
      At line 134 in file ..\..\..\..\Libraries\startup\src\mdk\startup_MK64F12
.s
      At line 593 in file ..\..\..\..\Libraries\startup\src\mdk\startup_MK64F12
.s

UART4_RX_TX_IRQHandler 0000001A

Symbol: UART4_RX_TX_IRQHandler
   Definitions
      At line 680 in file ..\..\..\..\Libraries\startup\src\mdk\startup_MK64F12
.s
   Uses
      At line 133 in file ..\..\..\..\Libraries\startup\src\mdk\startup_MK64F12
.s
      At line 592 in file ..\..\..\..\Libraries\startup\src\mdk\startup_MK64F12
.s




ARM Macro Assembler    Page 25 Alphabetic symbol ordering
Relocatable symbols

UART5_ERR_IRQHandler 0000001A

Symbol: UART5_ERR_IRQHandler
   Definitions
      At line 683 in file ..\..\..\..\Libraries\startup\src\mdk\startup_MK64F12
.s
   Uses
      At line 136 in file ..\..\..\..\Libraries\startup\src\mdk\startup_MK64F12
.s
      At line 595 in file ..\..\..\..\Libraries\startup\src\mdk\startup_MK64F12
.s

UART5_RX_TX_IRQHandler 0000001A

Symbol: UART5_RX_TX_IRQHandler
   Definitions
      At line 682 in file ..\..\..\..\Libraries\startup\src\mdk\startup_MK64F12
.s
   Uses
      At line 135 in file ..\..\..\..\Libraries\startup\src\mdk\startup_MK64F12
.s
      At line 594 in file ..\..\..\..\Libraries\startup\src\mdk\startup_MK64F12
.s

USB0_IRQHandler 0000001A

Symbol: USB0_IRQHandler
   Definitions
      At line 667 in file ..\..\..\..\Libraries\startup\src\mdk\startup_MK64F12
.s
   Uses
      At line 120 in file ..\..\..\..\Libraries\startup\src\mdk\startup_MK64F12
.s
      At line 579 in file ..\..\..\..\Libraries\startup\src\mdk\startup_MK64F12
.s

USBDCD_IRQHandler 0000001A

Symbol: USBDCD_IRQHandler
   Definitions
      At line 668 in file ..\..\..\..\Libraries\startup\src\mdk\startup_MK64F12
.s
   Uses
      At line 121 in file ..\..\..\..\Libraries\startup\src\mdk\startup_MK64F12
.s
      At line 580 in file ..\..\..\..\Libraries\startup\src\mdk\startup_MK64F12
.s

UsageFault_Handler 00000010

Symbol: UsageFault_Handler
   Definitions
      At line 503 in file ..\..\..\..\Libraries\startup\src\mdk\startup_MK64F12
.s
   Uses
      At line 55 in file ..\..\..\..\Libraries\startup\src\mdk\startup_MK64F12.
s
      At line 504 in file ..\..\..\..\Libraries\startup\src\mdk\startup_MK64F12
.s



ARM Macro Assembler    Page 26 Alphabetic symbol ordering
Relocatable symbols


Watchdog_IRQHandler 0000001A

Symbol: Watchdog_IRQHandler
   Definitions
      At line 636 in file ..\..\..\..\Libraries\startup\src\mdk\startup_MK64F12
.s
   Uses
      At line 89 in file ..\..\..\..\Libraries\startup\src\mdk\startup_MK64F12.
s
      At line 548 in file ..\..\..\..\Libraries\startup\src\mdk\startup_MK64F12
.s

__user_initial_stackheap 0000001C

Symbol: __user_initial_stackheap
   Definitions
      At line 722 in file ..\..\..\..\Libraries\startup\src\mdk\startup_MK64F12
.s
   Uses
      At line 721 in file ..\..\..\..\Libraries\startup\src\mdk\startup_MK64F12
.s
Comment: __user_initial_stackheap used once
100 symbols



ARM Macro Assembler    Page 1 Alphabetic symbol ordering
Absolute symbols

BackDoorK0 000000FF

Symbol: BackDoorK0
   Definitions
      At line 323 in file ..\..\..\..\Libraries\startup\src\mdk\startup_MK64F12
.s
   Uses
      At line 459 in file ..\..\..\..\Libraries\startup\src\mdk\startup_MK64F12
.s
Comment: BackDoorK0 used once
BackDoorK1 000000FF

Symbol: BackDoorK1
   Definitions
      At line 324 in file ..\..\..\..\Libraries\startup\src\mdk\startup_MK64F12
.s
   Uses
      At line 459 in file ..\..\..\..\Libraries\startup\src\mdk\startup_MK64F12
.s
Comment: BackDoorK1 used once
BackDoorK2 000000FF

Symbol: BackDoorK2
   Definitions
      At line 325 in file ..\..\..\..\Libraries\startup\src\mdk\startup_MK64F12
.s
   Uses
      At line 459 in file ..\..\..\..\Libraries\startup\src\mdk\startup_MK64F12
.s
Comment: BackDoorK2 used once
BackDoorK3 000000FF

Symbol: BackDoorK3
   Definitions
      At line 326 in file ..\..\..\..\Libraries\startup\src\mdk\startup_MK64F12
.s
   Uses
      At line 459 in file ..\..\..\..\Libraries\startup\src\mdk\startup_MK64F12
.s
Comment: BackDoorK3 used once
BackDoorK4 000000FF

Symbol: BackDoorK4
   Definitions
      At line 327 in file ..\..\..\..\Libraries\startup\src\mdk\startup_MK64F12
.s
   Uses
      At line 460 in file ..\..\..\..\Libraries\startup\src\mdk\startup_MK64F12
.s
Comment: BackDoorK4 used once
BackDoorK5 000000FF

Symbol: BackDoorK5
   Definitions
      At line 328 in file ..\..\..\..\Libraries\startup\src\mdk\startup_MK64F12
.s
   Uses
      At line 460 in file ..\..\..\..\Libraries\startup\src\mdk\startup_MK64F12
.s



ARM Macro Assembler    Page 2 Alphabetic symbol ordering
Absolute symbols

Comment: BackDoorK5 used once
BackDoorK6 000000FF

Symbol: BackDoorK6
   Definitions
      At line 329 in file ..\..\..\..\Libraries\startup\src\mdk\startup_MK64F12
.s
   Uses
      At line 460 in file ..\..\..\..\Libraries\startup\src\mdk\startup_MK64F12
.s
Comment: BackDoorK6 used once
BackDoorK7 000000FF

Symbol: BackDoorK7
   Definitions
      At line 330 in file ..\..\..\..\Libraries\startup\src\mdk\startup_MK64F12
.s
   Uses
      At line 460 in file ..\..\..\..\Libraries\startup\src\mdk\startup_MK64F12
.s
Comment: BackDoorK7 used once
FDPROT 000000FF

Symbol: FDPROT
   Definitions
      At line 404 in file ..\..\..\..\Libraries\startup\src\mdk\startup_MK64F12
.s
   Uses
      At line 462 in file ..\..\..\..\Libraries\startup\src\mdk\startup_MK64F12
.s
Comment: FDPROT used once
FEPROT 000000FF

Symbol: FEPROT
   Definitions
      At line 418 in file ..\..\..\..\Libraries\startup\src\mdk\startup_MK64F12
.s
   Uses
      At line 462 in file ..\..\..\..\Libraries\startup\src\mdk\startup_MK64F12
.s
Comment: FEPROT used once
FOPT 000000FF

Symbol: FOPT
   Definitions
      At line 428 in file ..\..\..\..\Libraries\startup\src\mdk\startup_MK64F12
.s
   Uses
      At line 462 in file ..\..\..\..\Libraries\startup\src\mdk\startup_MK64F12
.s
Comment: FOPT used once
FPROT0 000000FF

Symbol: FPROT0
   Definitions
      At line 347 in file ..\..\..\..\Libraries\startup\src\mdk\startup_MK64F12
.s
   Uses
      At line 461 in file ..\..\..\..\Libraries\startup\src\mdk\startup_MK64F12



ARM Macro Assembler    Page 3 Alphabetic symbol ordering
Absolute symbols

.s
Comment: FPROT0 used once
FPROT1 000000FF

Symbol: FPROT1
   Definitions
      At line 361 in file ..\..\..\..\Libraries\startup\src\mdk\startup_MK64F12
.s
   Uses
      At line 461 in file ..\..\..\..\Libraries\startup\src\mdk\startup_MK64F12
.s
Comment: FPROT1 used once
FPROT2 000000FF

Symbol: FPROT2
   Definitions
      At line 375 in file ..\..\..\..\Libraries\startup\src\mdk\startup_MK64F12
.s
   Uses
      At line 461 in file ..\..\..\..\Libraries\startup\src\mdk\startup_MK64F12
.s
Comment: FPROT2 used once
FPROT3 000000FF

Symbol: FPROT3
   Definitions
      At line 389 in file ..\..\..\..\Libraries\startup\src\mdk\startup_MK64F12
.s
   Uses
      At line 461 in file ..\..\..\..\Libraries\startup\src\mdk\startup_MK64F12
.s
Comment: FPROT3 used once
FSEC 000000FE

Symbol: FSEC
   Definitions
      At line 453 in file ..\..\..\..\Libraries\startup\src\mdk\startup_MK64F12
.s
   Uses
      At line 462 in file ..\..\..\..\Libraries\startup\src\mdk\startup_MK64F12
.s
Comment: FSEC used once
Heap_Size 0000F200

Symbol: Heap_Size
   Definitions
      At line 30 in file ..\..\..\..\Libraries\startup\src\mdk\startup_MK64F12.
s
   Uses
      At line 34 in file ..\..\..\..\Libraries\startup\src\mdk\startup_MK64F12.
s
      At line 726 in file ..\..\..\..\Libraries\startup\src\mdk\startup_MK64F12
.s

Stack_Size 00000800

Symbol: Stack_Size
   Definitions
      At line 19 in file ..\..\..\..\Libraries\startup\src\mdk\startup_MK64F12.



ARM Macro Assembler    Page 4 Alphabetic symbol ordering
Absolute symbols

s
   Uses
      At line 22 in file ..\..\..\..\Libraries\startup\src\mdk\startup_MK64F12.
s
      At line 725 in file ..\..\..\..\Libraries\startup\src\mdk\startup_MK64F12
.s

__Vectors_Size 00000400

Symbol: __Vectors_Size
   Definitions
      At line 309 in file ..\..\..\..\Libraries\startup\src\mdk\startup_MK64F12
.s
   Uses
      At line 47 in file ..\..\..\..\Libraries\startup\src\mdk\startup_MK64F12.
s
Comment: __Vectors_Size used once
nFDPROT 00000000

Symbol: nFDPROT
   Definitions
      At line 403 in file ..\..\..\..\Libraries\startup\src\mdk\startup_MK64F12
.s
   Uses
      At line 404 in file ..\..\..\..\Libraries\startup\src\mdk\startup_MK64F12
.s
Comment: nFDPROT used once
nFEPROT 00000000

Symbol: nFEPROT
   Definitions
      At line 417 in file ..\..\..\..\Libraries\startup\src\mdk\startup_MK64F12
.s
   Uses
      At line 418 in file ..\..\..\..\Libraries\startup\src\mdk\startup_MK64F12
.s
Comment: nFEPROT used once
nFPROT0 00000000

Symbol: nFPROT0
   Definitions
      At line 346 in file ..\..\..\..\Libraries\startup\src\mdk\startup_MK64F12
.s
   Uses
      At line 347 in file ..\..\..\..\Libraries\startup\src\mdk\startup_MK64F12
.s
Comment: nFPROT0 used once
nFPROT1 00000000

Symbol: nFPROT1
   Definitions
      At line 360 in file ..\..\..\..\Libraries\startup\src\mdk\startup_MK64F12
.s
   Uses
      At line 361 in file ..\..\..\..\Libraries\startup\src\mdk\startup_MK64F12
.s
Comment: nFPROT1 used once
nFPROT2 00000000




ARM Macro Assembler    Page 5 Alphabetic symbol ordering
Absolute symbols

Symbol: nFPROT2
   Definitions
      At line 374 in file ..\..\..\..\Libraries\startup\src\mdk\startup_MK64F12
.s
   Uses
      At line 375 in file ..\..\..\..\Libraries\startup\src\mdk\startup_MK64F12
.s
Comment: nFPROT2 used once
nFPROT3 00000000

Symbol: nFPROT3
   Definitions
      At line 388 in file ..\..\..\..\Libraries\startup\src\mdk\startup_MK64F12
.s
   Uses
      At line 389 in file ..\..\..\..\Libraries\startup\src\mdk\startup_MK64F12
.s
Comment: nFPROT3 used once
25 symbols



ARM Macro Assembler    Page 1 Alphabetic symbol ordering
External symbols

SystemInit 00000000

Symbol: SystemInit
   Definitions
      At line 472 in file ..\..\..\..\Libraries\startup\src\mdk\startup_MK64F12
.s
   Uses
      At line 474 in file ..\..\..\..\Libraries\startup\src\mdk\startup_MK64F12
.s
Comment: SystemInit used once
__main 00000000

Symbol: __main
   Definitions
      At line 473 in file ..\..\..\..\Libraries\startup\src\mdk\startup_MK64F12
.s
   Uses
      At line 476 in file ..\..\..\..\Libraries\startup\src\mdk\startup_MK64F12
.s
Comment: __main used once
__use_two_region_memory 00000000

Symbol: __use_two_region_memory
   Definitions
      At line 720 in file ..\..\..\..\Libraries\startup\src\mdk\startup_MK64F12
.s
   Uses
      None
Comment: __use_two_region_memory unused
3 symbols
480 symbols in table
